TN:
SF:/home/shasdor/CalcGTestHomeTask/CalcGTest/ICalculator.h
FN:13,13,_ZN4calc11ICalculatorD0Ev
FN:13,13,_ZN4calc11ICalculatorD2Ev
FNDA:0,_ZN4calc11ICalculatorD0Ev
FNDA:14,_ZN4calc11ICalculatorD2Ev
FNF:2
FNH:1
DA:13,14
LF:1
LH:1
end_of_record
TN:
SF:/home/shasdor/CalcGTestHomeTask/CalcGTest/IHistory.h
FN:14,14,_ZN4calc8IHistoryD0Ev
FN:14,14,_ZN4calc8IHistoryD2Ev
FNDA:0,_ZN4calc8IHistoryD0Ev
FNDA:19,_ZN4calc8IHistoryD2Ev
FNF:2
FNH:1
DA:14,19
LF:1
LH:1
end_of_record
TN:
SF:/home/shasdor/CalcGTestHomeTask/CalcGTest/InMemoryHistory.cpp
FN:13,17,_ZNK4calc15InMemoryHistory17GetLastOperationsB5cxx11Em
FN:8,11,_ZN4calc15InMemoryHistory8AddEntryERKNSt7__cxx1112basic_stringIcSt11char_traitsIcESaIcEEE
FNDA:5,_ZNK4calc15InMemoryHistory17GetLastOperationsB5cxx11Em
FNDA:26,_ZN4calc15InMemoryHistory8AddEntryERKNSt7__cxx1112basic_stringIcSt11char_traitsIcESaIcEEE
FNF:2
FNH:2
DA:8,26
DA:10,26
DA:11,26
DA:13,5
DA:15,5
DA:16,15
LF:6
LH:6
end_of_record
TN:
SF:/home/shasdor/CalcGTestHomeTask/CalcGTest/InMemoryHistory.h
FN:13,13,_ZN4calc15InMemoryHistoryC2Ev
FNDA:16,_ZN4calc15InMemoryHistoryC2Ev
FNF:1
FNH:1
DA:13,16
LF:1
LH:1
end_of_record
TN:
SF:/home/shasdor/CalcGTestHomeTask/CalcGTest/SimpleCalculator.cpp
FN:11,14,_ZN4calc16SimpleCalculatorC2ERNS_8IHistoryE
FN:16,19,_ZN4calc16SimpleCalculator10SetHistoryERNS_8IHistoryE
FN:21,26,_ZN4calc16SimpleCalculator3AddEdd
FN:28,33,_ZN4calc16SimpleCalculator8SubtractEdd
FN:35,40,_ZN4calc16SimpleCalculator8MultiplyEdd
FN:42,52,_ZN4calc16SimpleCalculator6DivideEdd
FN:54,59,_ZN4calc16SimpleCalculator12LogOperationEdPKcdd
FNDA:14,_ZN4calc16SimpleCalculatorC2ERNS_8IHistoryE
FNDA:1,_ZN4calc16SimpleCalculator10SetHistoryERNS_8IHistoryE
FNDA:5,_ZN4calc16SimpleCalculator3AddEdd
FNDA:3,_ZN4calc16SimpleCalculator8SubtractEdd
FNDA:4,_ZN4calc16SimpleCalculator8MultiplyEdd
FNDA:5,_ZN4calc16SimpleCalculator6DivideEdd
FNDA:16,_ZN4calc16SimpleCalculator12LogOperationEdPKcdd
FNF:7
FNH:7
DA:11,14
DA:12,14
DA:14,14
DA:16,1
DA:18,1
DA:19,1
DA:21,5
DA:23,5
DA:24,5
DA:25,5
DA:28,3
DA:30,3
DA:31,3
DA:32,3
DA:35,4
DA:37,4
DA:38,4
DA:39,4
DA:42,5
DA:44,5
DA:45,5
DA:47,1
DA:49,4
DA:51,4
DA:54,16
DA:56,16
DA:57,16
DA:58,16
DA:59,16
LF:29
LH:29
end_of_record
TN:
SF:/home/shasdor/CalcGTestHomeTask/CalcGTest/SimpleCalculator.h
FNF:0
FNH:0
LF:0
LH:0
end_of_record
TN:
SF:/home/shasdor/CalcGTestHomeTask/CalcGTest/build/_deps/googletest-src/googlemock/include/gmock/gmock-actions.h
FN:1002,1010,_ZN7testing8internal12ReturnActionISt6vectorINSt7__cxx1112basic_stringIcSt11char_traitsIcESaIcEEESaIS8_EEE4ImplISA_E5StateC2EOSA_
FN:1265,1267,_ZNK7testing8internal15DoDefaultActioncvNS_6ActionIT_EEIFSt6vectorINSt7__cxx1112basic_stringIcSt11char_traitsIcESaIcEEESaISC_EEmEEEv
FN:1265,1267,_ZNK7testing8internal15DoDefaultActioncvNS_6ActionIT_EEIFvRKNSt7__cxx1112basic_stringIcSt11char_traitsIcESaIcEEEEEEv
FN:172,172,_ZN7testing8internal25BuiltInDefaultValueGetterISt6vectorINSt7__cxx1112basic_stringIcSt11char_traitsIcESaIcEEESaIS8_EELb1EE3GetEv
FN:1935,1937,_ZN7testing6ReturnISt6vectorINSt7__cxx1112basic_stringIcSt11char_traitsIcESaIcEEESaIS7_EEEENS_8internal12ReturnActionIT_EESC_
FN:1996,1998,_ZN7testing9DoDefaultEv
FN:203,203,_ZN7testing8internal19BuiltInDefaultValueISt6vectorINSt7__cxx1112basic_stringIcSt11char_traitsIcESaIcEEESaIS8_EEE6ExistsEv
FN:205,208,_ZN7testing8internal19BuiltInDefaultValueISt6vectorINSt7__cxx1112basic_stringIcSt11char_traitsIcESaIcEEESaIS8_EEE3GetEv
FN:462,464,_ZN7testing10OnceActionIFSt6vectorINSt7__cxx1112basic_stringIcSt11char_traitsIcESaIcEEESaIS7_EEmEEC2INSB_23IgnoreIncomingArgumentsINS_8internal12ReturnActionIS9_E4ImplIS9_EEEELi0EEEOT_
FN:481,485,_ZN7testing10OnceActionIFSt6vectorINSt7__cxx1112basic_stringIcSt11char_traitsIcESaIcEEESaIS7_EEmEEC2INS_8internal12ReturnActionIS9_E4ImplIS9_EELi0EEEOT_
FN:491,491,_ZN7testing10OnceActionIFSt6vectorINSt7__cxx1112basic_stringIcSt11char_traitsIcESaIcEEESaIS7_EEmEEC2EOSB_
FN:495,497,_ZNO7testing10OnceActionIFSt6vectorINSt7__cxx1112basic_stringIcSt11char_traitsIcESaIcEEESaIS7_EEmEE4CallEm
FN:516,517,_ZN7testing10OnceActionIFSt6vectorINSt7__cxx1112basic_stringIcSt11char_traitsIcESaIcEEESaIS7_EEmEE18StdFunctionAdaptorINSB_23IgnoreIncomingArgumentsINS_8internal12ReturnActionIS9_E4ImplIS9_EEEEEC2ISJ_EENSK_11CallableTagEOT_
FN:538,541,_ZNK7testing10OnceActionIFSt6vectorINSt7__cxx1112basic_stringIcSt11char_traitsIcESaIcEEESaIS7_EEmEE18StdFunctionAdaptorINSB_23IgnoreIncomingArgumentsINS_8internal12ReturnActionIS9_E4ImplIS9_EEEEEclIJmEEEDTclclL_ZSt7declvalISJ_EDTcl9__declvalIT_ELi0EEEvEEspcl7declvalIT_EEEEDpOSP_
FN:553,555,_ZN7testing10OnceActionIFSt6vectorINSt7__cxx1112basic_stringIcSt11char_traitsIcESaIcEEESaIS7_EEmEE23IgnoreIncomingArgumentsINS_8internal12ReturnActionIS9_E4ImplIS9_EEEclEOm
FN:602,602,_ZN7testing12DefaultValueISt6vectorINSt7__cxx1112basic_stringIcSt11char_traitsIcESaIcEEESaIS7_EEE5IsSetEv
FN:606,608,_ZN7testing12DefaultValueISt6vectorINSt7__cxx1112basic_stringIcSt11char_traitsIcESaIcEEESaIS7_EEE6ExistsEv
FN:613,616,_ZN7testing12DefaultValueISt6vectorINSt7__cxx1112basic_stringIcSt11char_traitsIcESaIcEEESaIS7_EEE3GetEv
FN:690,690,_ZN7testing12DefaultValueIvE6ExistsEv
FN:691,691,_ZN7testing12DefaultValueIvE3GetEv
FN:759,759,_ZN7testing6ActionIFSt6vectorINSt7__cxx1112basic_stringIcSt11char_traitsIcESaIcEEESaIS7_EEmEEC2Ev
FN:759,759,_ZN7testing6ActionIFvRKNSt7__cxx1112basic_stringIcSt11char_traitsIcESaIcEEEEEC2Ev
FN:769,771,_ZN7testing6ActionIFSt6vectorINSt7__cxx1112basic_stringIcSt11char_traitsIcESaIcEEESaIS7_EEmEEC2INS_8internal16TypedExpectationISA_E13ActionAdaptorEvEEOT_
FN:785,785,_ZNK7testing6ActionIFSt6vectorINSt7__cxx1112basic_stringIcSt11char_traitsIcESaIcEEESaIS7_EEmEE11IsDoDefaultEv
FN:785,785,_ZNK7testing6ActionIFvRKNSt7__cxx1112basic_stringIcSt11char_traitsIcESaIcEEEEE11IsDoDefaultEv
FN:793,798,_ZNK7testing6ActionIFSt6vectorINSt7__cxx1112basic_stringIcSt11char_traitsIcESaIcEEESaIS7_EEmEE7PerformESt5tupleIJmEE
FN:793,798,_ZNK7testing6ActionIFvRKNSt7__cxx1112basic_stringIcSt11char_traitsIcESaIcEEEEE7PerformESt5tupleIJS8_EE
FN:823,825,_ZN7testing6ActionIFSt6vectorINSt7__cxx1112basic_stringIcSt11char_traitsIcESaIcEEESaIS7_EEmEE4InitINS_8internal16TypedExpectationISA_E13ActionAdaptorEEEvOT_St17integral_constantIbLb1EE
FN:934,934,_ZN7testing8internal12ReturnActionISt6vectorINSt7__cxx1112basic_stringIcSt11char_traitsIcESaIcEEESaIS8_EEEC2ESA_
FN:943,945,_ZNO7testing8internal12ReturnActionISt6vectorINSt7__cxx1112basic_stringIcSt11char_traitsIcESaIcEEESaIS8_EEEcvNS_10OnceActionIFT_DpT0_EEEISA_JmEvEEv
FN:965,966,_ZN7testing8internal12ReturnActionISt6vectorINSt7__cxx1112basic_stringIcSt11char_traitsIcESaIcEEESaIS8_EEE4ImplISA_EC2EOSA_
FN:972,972,_ZNO7testing8internal12ReturnActionISt6vectorINSt7__cxx1112basic_stringIcSt11char_traitsIcESaIcEEESaIS8_EEE4ImplISA_EclEv
FNDA:1,_ZN7testing8internal12ReturnActionISt6vectorINSt7__cxx1112basic_stringIcSt11char_traitsIcESaIcEEESaIS8_EEE4ImplISA_E5StateC2EOSA_
FNDA:1,_ZNK7testing8internal15DoDefaultActioncvNS_6ActionIT_EEIFSt6vectorINSt7__cxx1112basic_stringIcSt11char_traitsIcESaIcEEESaISC_EEmEEEv
FNDA:5,_ZNK7testing8internal15DoDefaultActioncvNS_6ActionIT_EEIFvRKNSt7__cxx1112basic_stringIcSt11char_traitsIcESaIcEEEEEEv
FNDA:0,_ZN7testing8internal25BuiltInDefaultValueGetterISt6vectorINSt7__cxx1112basic_stringIcSt11char_traitsIcESaIcEEESaIS8_EELb1EE3GetEv
FNDA:1,_ZN7testing6ReturnISt6vectorINSt7__cxx1112basic_stringIcSt11char_traitsIcESaIcEEESaIS7_EEEENS_8internal12ReturnActionIT_EESC_
FNDA:6,_ZN7testing9DoDefaultEv
FNDA:0,_ZN7testing8internal19BuiltInDefaultValueISt6vectorINSt7__cxx1112basic_stringIcSt11char_traitsIcESaIcEEESaIS8_EEE6ExistsEv
FNDA:0,_ZN7testing8internal19BuiltInDefaultValueISt6vectorINSt7__cxx1112basic_stringIcSt11char_traitsIcESaIcEEESaIS8_EEE3GetEv
FNDA:1,_ZN7testing10OnceActionIFSt6vectorINSt7__cxx1112basic_stringIcSt11char_traitsIcESaIcEEESaIS7_EEmEEC2INSB_23IgnoreIncomingArgumentsINS_8internal12ReturnActionIS9_E4ImplIS9_EEEELi0EEEOT_
FNDA:1,_ZN7testing10OnceActionIFSt6vectorINSt7__cxx1112basic_stringIcSt11char_traitsIcESaIcEEESaIS7_EEmEEC2INS_8internal12ReturnActionIS9_E4ImplIS9_EELi0EEEOT_
FNDA:1,_ZN7testing10OnceActionIFSt6vectorINSt7__cxx1112basic_stringIcSt11char_traitsIcESaIcEEESaIS7_EEmEEC2EOSB_
FNDA:1,_ZNO7testing10OnceActionIFSt6vectorINSt7__cxx1112basic_stringIcSt11char_traitsIcESaIcEEESaIS7_EEmEE4CallEm
FNDA:1,_ZN7testing10OnceActionIFSt6vectorINSt7__cxx1112basic_stringIcSt11char_traitsIcESaIcEEESaIS7_EEmEE18StdFunctionAdaptorINSB_23IgnoreIncomingArgumentsINS_8internal12ReturnActionIS9_E4ImplIS9_EEEEEC2ISJ_EENSK_11CallableTagEOT_
FNDA:1,_ZNK7testing10OnceActionIFSt6vectorINSt7__cxx1112basic_stringIcSt11char_traitsIcESaIcEEESaIS7_EEmEE18StdFunctionAdaptorINSB_23IgnoreIncomingArgumentsINS_8internal12ReturnActionIS9_E4ImplIS9_EEEEEclIJmEEEDTclclL_ZSt7declvalISJ_EDTcl9__declvalIT_ELi0EEEvEEspcl7declvalIT_EEEEDpOSP_
FNDA:1,_ZN7testing10OnceActionIFSt6vectorINSt7__cxx1112basic_stringIcSt11char_traitsIcESaIcEEESaIS7_EEmEE23IgnoreIncomingArgumentsINS_8internal12ReturnActionIS9_E4ImplIS9_EEEclEOm
FNDA:0,_ZN7testing12DefaultValueISt6vectorINSt7__cxx1112basic_stringIcSt11char_traitsIcESaIcEEESaIS7_EEE5IsSetEv
FNDA:0,_ZN7testing12DefaultValueISt6vectorINSt7__cxx1112basic_stringIcSt11char_traitsIcESaIcEEESaIS7_EEE6ExistsEv
FNDA:0,_ZN7testing12DefaultValueISt6vectorINSt7__cxx1112basic_stringIcSt11char_traitsIcESaIcEEESaIS7_EEE3GetEv
FNDA:5,_ZN7testing12DefaultValueIvE6ExistsEv
FNDA:5,_ZN7testing12DefaultValueIvE3GetEv
FNDA:1,_ZN7testing6ActionIFSt6vectorINSt7__cxx1112basic_stringIcSt11char_traitsIcESaIcEEESaIS7_EEmEEC2Ev
FNDA:5,_ZN7testing6ActionIFvRKNSt7__cxx1112basic_stringIcSt11char_traitsIcESaIcEEEEEC2Ev
FNDA:1,_ZN7testing6ActionIFSt6vectorINSt7__cxx1112basic_stringIcSt11char_traitsIcESaIcEEESaIS7_EEmEEC2INS_8internal16TypedExpectationISA_E13ActionAdaptorEvEEOT_
FNDA:2,_ZNK7testing6ActionIFSt6vectorINSt7__cxx1112basic_stringIcSt11char_traitsIcESaIcEEESaIS7_EEmEE11IsDoDefaultEv
FNDA:5,_ZNK7testing6ActionIFvRKNSt7__cxx1112basic_stringIcSt11char_traitsIcESaIcEEEEE11IsDoDefaultEv
FNDA:1,_ZNK7testing6ActionIFSt6vectorINSt7__cxx1112basic_stringIcSt11char_traitsIcESaIcEEESaIS7_EEmEE7PerformESt5tupleIJmEE
FNDA:0,_ZNK7testing6ActionIFvRKNSt7__cxx1112basic_stringIcSt11char_traitsIcESaIcEEEEE7PerformESt5tupleIJS8_EE
FNDA:1,_ZN7testing6ActionIFSt6vectorINSt7__cxx1112basic_stringIcSt11char_traitsIcESaIcEEESaIS7_EEmEE4InitINS_8internal16TypedExpectationISA_E13ActionAdaptorEEEvOT_St17integral_constantIbLb1EE
FNDA:1,_ZN7testing8internal12ReturnActionISt6vectorINSt7__cxx1112basic_stringIcSt11char_traitsIcESaIcEEESaIS8_EEEC2ESA_
FNDA:1,_ZNO7testing8internal12ReturnActionISt6vectorINSt7__cxx1112basic_stringIcSt11char_traitsIcESaIcEEESaIS8_EEEcvNS_10OnceActionIFT_DpT0_EEEISA_JmEvEEv
FNDA:1,_ZN7testing8internal12ReturnActionISt6vectorINSt7__cxx1112basic_stringIcSt11char_traitsIcESaIcEEESaIS8_EEE4ImplISA_EC2EOSA_
FNDA:1,_ZNO7testing8internal12ReturnActionISt6vectorINSt7__cxx1112basic_stringIcSt11char_traitsIcESaIcEEESaIS8_EEE4ImplISA_EclEv
FNF:32
FNH:25
DA:172,0
DA:203,0
DA:205,0
DA:207,0
DA:462,1
DA:463,1
DA:464,1
DA:481,1
DA:485,1
DA:491,1
DA:495,1
DA:496,1
DA:516,1
DA:517,1
DA:538,1
DA:540,1
DA:553,1
DA:554,1
DA:602,0
DA:606,0
DA:607,0
DA:613,0
DA:614,0
DA:615,0
DA:690,5
DA:691,5
DA:759,6
DA:769,1
DA:770,1
DA:771,1
DA:785,7
DA:793,1
DA:794,1
DA:795,0
DA:797,1
DA:823,1
DA:824,1
DA:825,1
DA:934,1
DA:943,1
DA:944,1
DA:965,1
DA:966,1
DA:972,1
DA:1002,1
DA:1003,1
DA:1010,1
DA:1265,6
DA:1266,6
DA:1935,1
DA:1936,1
DA:1996,6
DA:1997,6
LF:53
LH:42
end_of_record
TN:
SF:/home/shasdor/CalcGTestHomeTask/CalcGTest/build/_deps/googletest-src/googlemock/include/gmock/gmock-cardinalities.h
FN:113,115,_ZNK7testing11Cardinality22IsSaturatedByCallCountEi
FNDA:12,_ZNK7testing11Cardinality22IsSaturatedByCallCountEi
FNF:1
FNH:1
DA:113,12
DA:114,12
LF:2
LH:2
end_of_record
TN:
SF:/home/shasdor/CalcGTestHomeTask/CalcGTest/build/_deps/googletest-src/googlemock/include/gmock/gmock-matchers.h
FN:309,309,_ZN7testing25StringMatchResultListenerC2Ev
FN:312,312,_ZNK7testing25StringMatchResultListener3strB5cxx11Ev
FN:4502,4504,_ZN7testing1AIRKSt5tupleIJRKNSt7__cxx1112basic_stringIcSt11char_traitsIcESaIcEEEEEEENS_7MatcherIT_EEv
FN:4502,4504,_ZN7testing1AIRKSt5tupleIJmEEEENS_7MatcherIT_EEv
FN:582,587,_ZN7testing8internal15PrintIfNotEmptyERKNSt7__cxx1112basic_stringIcSt11char_traitsIcESaIcEEEPSo
FN:636,640,_ZN7testing8internal11TuplePrefixILm1EE7MatchesISt5tupleIJNS_7MatcherIRKNSt7__cxx1112basic_stringIcSt11char_traitsIcESaIcEEEEEEES4_IJSD_EEEEbRKT_RKT0_
FN:636,640,_ZN7testing8internal11TuplePrefixILm1EE7MatchesISt5tupleIJNS_7MatcherImEEEES4_IJmEEEEbRKT_RKT0_
FN:647,673,_ZN7testing8internal11TuplePrefixILm1EE22ExplainMatchFailuresToISt5tupleIJNS_7MatcherIRKNSt7__cxx1112basic_stringIcSt11char_traitsIcESaIcEEEEEEES4_IJSD_EEEEvRKT_RKT0_PSo
FN:647,673,_ZN7testing8internal11TuplePrefixILm1EE22ExplainMatchFailuresToISt5tupleIJNS_7MatcherImEEEES4_IJmEEEEvRKT_RKT0_PSo
FN:681,684,_ZN7testing8internal11TuplePrefixILm0EE7MatchesISt5tupleIJNS_7MatcherIRKNSt7__cxx1112basic_stringIcSt11char_traitsIcESaIcEEEEEEES4_IJSD_EEEEbRKT_RKT0_
FN:681,684,_ZN7testing8internal11TuplePrefixILm0EE7MatchesISt5tupleIJNS_7MatcherImEEEES4_IJmEEEEbRKT_RKT0_
FN:687,689,_ZN7testing8internal11TuplePrefixILm0EE22ExplainMatchFailuresToISt5tupleIJNS_7MatcherIRKNSt7__cxx1112basic_stringIcSt11char_traitsIcESaIcEEEEEEES4_IJSD_EEEEvRKT_RKT0_PSo
FN:687,689,_ZN7testing8internal11TuplePrefixILm0EE22ExplainMatchFailuresToISt5tupleIJNS_7MatcherImEEEES4_IJmEEEEvRKT_RKT0_PSo
FN:698,707,_ZN7testing8internal12TupleMatchesISt5tupleIJNS_7MatcherIRKNSt7__cxx1112basic_stringIcSt11char_traitsIcESaIcEEEEEEES2_IJSB_EEEEbRKT_RKT0_
FN:698,707,_ZN7testing8internal12TupleMatchesISt5tupleIJNS_7MatcherImEEEES2_IJmEEEEbRKT_RKT0_
FN:712,716,_ZN7testing8internal26ExplainMatchFailureTupleToISt5tupleIJNS_7MatcherIRKNSt7__cxx1112basic_stringIcSt11char_traitsIcESaIcEEEEEEES2_IJSB_EEEEvRKT_RKT0_PSo
FN:712,716,_ZN7testing8internal26ExplainMatchFailureTupleToISt5tupleIJNS_7MatcherImEEEES2_IJmEEEEvRKT_RKT0_PSo
FN:767,769,_ZNK7testing8internal15AnythingMatcher15MatchAndExplainINSt7__cxx1112basic_stringIcSt11char_traitsIcESaIcEEEEEbRKT_PSo
FN:767,769,_ZNK7testing8internal15AnythingMatcher15MatchAndExplainISt5tupleIJRKNSt7__cxx1112basic_stringIcSt11char_traitsIcESaIcEEEEEEEbRKT_PSo
FN:767,769,_ZNK7testing8internal15AnythingMatcher15MatchAndExplainISt5tupleIJmEEEEbRKT_PSo
FN:770,770,_ZNK7testing8internal15AnythingMatcher10DescribeToEPSo
FN:771,776,_ZNK7testing8internal15AnythingMatcher18DescribeNegationToEPSo
FNDA:0,_ZN7testing25StringMatchResultListenerC2Ev
FNDA:0,_ZNK7testing25StringMatchResultListener3strB5cxx11Ev
FNDA:5,_ZN7testing1AIRKSt5tupleIJRKNSt7__cxx1112basic_stringIcSt11char_traitsIcESaIcEEEEEEENS_7MatcherIT_EEv
FNDA:1,_ZN7testing1AIRKSt5tupleIJmEEEENS_7MatcherIT_EEv
FNDA:0,_ZN7testing8internal15PrintIfNotEmptyERKNSt7__cxx1112basic_stringIcSt11char_traitsIcESaIcEEEPSo
FNDA:5,_ZN7testing8internal11TuplePrefixILm1EE7MatchesISt5tupleIJNS_7MatcherIRKNSt7__cxx1112basic_stringIcSt11char_traitsIcESaIcEEEEEEES4_IJSD_EEEEbRKT_RKT0_
FNDA:1,_ZN7testing8internal11TuplePrefixILm1EE7MatchesISt5tupleIJNS_7MatcherImEEEES4_IJmEEEEbRKT_RKT0_
FNDA:0,_ZN7testing8internal11TuplePrefixILm1EE22ExplainMatchFailuresToISt5tupleIJNS_7MatcherIRKNSt7__cxx1112basic_stringIcSt11char_traitsIcESaIcEEEEEEES4_IJSD_EEEEvRKT_RKT0_PSo
FNDA:0,_ZN7testing8internal11TuplePrefixILm1EE22ExplainMatchFailuresToISt5tupleIJNS_7MatcherImEEEES4_IJmEEEEvRKT_RKT0_PSo
FNDA:5,_ZN7testing8internal11TuplePrefixILm0EE7MatchesISt5tupleIJNS_7MatcherIRKNSt7__cxx1112basic_stringIcSt11char_traitsIcESaIcEEEEEEES4_IJSD_EEEEbRKT_RKT0_
FNDA:1,_ZN7testing8internal11TuplePrefixILm0EE7MatchesISt5tupleIJNS_7MatcherImEEEES4_IJmEEEEbRKT_RKT0_
FNDA:0,_ZN7testing8internal11TuplePrefixILm0EE22ExplainMatchFailuresToISt5tupleIJNS_7MatcherIRKNSt7__cxx1112basic_stringIcSt11char_traitsIcESaIcEEEEEEES4_IJSD_EEEEvRKT_RKT0_PSo
FNDA:0,_ZN7testing8internal11TuplePrefixILm0EE22ExplainMatchFailuresToISt5tupleIJNS_7MatcherImEEEES4_IJmEEEEvRKT_RKT0_PSo
FNDA:5,_ZN7testing8internal12TupleMatchesISt5tupleIJNS_7MatcherIRKNSt7__cxx1112basic_stringIcSt11char_traitsIcESaIcEEEEEEES2_IJSB_EEEEbRKT_RKT0_
FNDA:1,_ZN7testing8internal12TupleMatchesISt5tupleIJNS_7MatcherImEEEES2_IJmEEEEbRKT_RKT0_
FNDA:0,_ZN7testing8internal26ExplainMatchFailureTupleToISt5tupleIJNS_7MatcherIRKNSt7__cxx1112basic_stringIcSt11char_traitsIcESaIcEEEEEEES2_IJSB_EEEEvRKT_RKT0_PSo
FNDA:0,_ZN7testing8internal26ExplainMatchFailureTupleToISt5tupleIJNS_7MatcherImEEEES2_IJmEEEEvRKT_RKT0_PSo
FNDA:1,_ZNK7testing8internal15AnythingMatcher15MatchAndExplainINSt7__cxx1112basic_stringIcSt11char_traitsIcESaIcEEEEEbRKT_PSo
FNDA:5,_ZNK7testing8internal15AnythingMatcher15MatchAndExplainISt5tupleIJRKNSt7__cxx1112basic_stringIcSt11char_traitsIcESaIcEEEEEEEbRKT_PSo
FNDA:1,_ZNK7testing8internal15AnythingMatcher15MatchAndExplainISt5tupleIJmEEEEbRKT_PSo
FNDA:0,_ZNK7testing8internal15AnythingMatcher10DescribeToEPSo
FNDA:0,_ZNK7testing8internal15AnythingMatcher18DescribeNegationToEPSo
FNF:22
FNH:11
DA:309,0
DA:312,0
DA:582,0
DA:584,0
DA:585,0
DA:587,0
DA:636,6
DA:638,12
DA:639,12
DA:647,0
DA:651,0
DA:655,0
DA:656,0
DA:658,0
DA:659,0
DA:660,0
DA:661,0
DA:662,0
DA:663,0
DA:669,0
DA:670,0
DA:671,0
DA:673,0
DA:681,6
DA:683,6
DA:687,0
DA:689,0
DA:698,6
DA:705,6
DA:706,6
DA:712,0
DA:714,0
DA:716,0
DA:767,7
DA:768,7
DA:770,0
DA:771,0
DA:775,0
DA:776,0
DA:4502,6
DA:4503,6
LF:41
LH:12
end_of_record
TN:
SF:/home/shasdor/CalcGTestHomeTask/CalcGTest/build/_deps/googletest-src/googlemock/include/gmock/gmock-spec-builders.h
FN:1003,1010,_ZN7testing8internal16TypedExpectationIFSt6vectorINSt7__cxx1112basic_stringIcSt11char_traitsIcESaIcEEESaIS8_EEmEE8WillOnceENS_10OnceActionISB_EE
FN:1018,1030,_ZN7testing8internal16TypedExpectationIFSt6vectorINSt7__cxx1112basic_stringIcSt11char_traitsIcESaIcEEESaIS8_EEmEE8WillOnceIJEvEERSC_NS_6ActionISB_EE
FN:1081,1081,_ZNK7testing8internal16TypedExpectationIFSt6vectorINSt7__cxx1112basic_stringIcSt11char_traitsIcESaIcEEESaIS8_EEmEE15repeated_actionEv
FN:1081,1081,_ZNK7testing8internal16TypedExpectationIFvRKNSt7__cxx1112basic_stringIcSt11char_traitsIcESaIcEEEEE15repeated_actionEv
FN:1085,1091,_ZN7testing8internal16TypedExpectationIFSt6vectorINSt7__cxx1112basic_stringIcSt11char_traitsIcESaIcEEESaIS8_EEmEE27MaybeDescribeExtraMatcherToEPSo
FN:1085,1091,_ZN7testing8internal16TypedExpectationIFvRKNSt7__cxx1112basic_stringIcSt11char_traitsIcESaIcEEEEE27MaybeDescribeExtraMatcherToEPSo
FN:1102,1104,_ZNK7testing8internal16TypedExpectationIFSt6vectorINSt7__cxx1112basic_stringIcSt11char_traitsIcESaIcEEESaIS8_EEmEE13ActionAdaptorclEOm
FN:1109,1109,_ZN7testing8internal16TypedExpectationIFSt6vectorINSt7__cxx1112basic_stringIcSt11char_traitsIcESaIcEEESaIS8_EEmEE9GetHandleEv
FN:1109,1109,_ZN7testing8internal16TypedExpectationIFvRKNSt7__cxx1112basic_stringIcSt11char_traitsIcESaIcEEEEE9GetHandleEv
FN:1116,1120,_ZNK7testing8internal16TypedExpectationIFSt6vectorINSt7__cxx1112basic_stringIcSt11char_traitsIcESaIcEEESaIS8_EEmEE7MatchesERKSt5tupleIJmEE
FN:1116,1120,_ZNK7testing8internal16TypedExpectationIFvRKNSt7__cxx1112basic_stringIcSt11char_traitsIcESaIcEEEEE7MatchesERKSt5tupleIJS9_EE
FN:1124,1134,_ZNK7testing8internal16TypedExpectationIFSt6vectorINSt7__cxx1112basic_stringIcSt11char_traitsIcESaIcEEESaIS8_EEmEE21ShouldHandleArgumentsERKSt5tupleIJmEE
FN:1124,1134,_ZNK7testing8internal16TypedExpectationIFvRKNSt7__cxx1112basic_stringIcSt11char_traitsIcESaIcEEEEE21ShouldHandleArgumentsERKSt5tupleIJS9_EE
FN:1138,1178,_ZNK7testing8internal16TypedExpectationIFSt6vectorINSt7__cxx1112basic_stringIcSt11char_traitsIcESaIcEEESaIS8_EEmEE20ExplainMatchResultToERKSt5tupleIJmEEPSo
FN:1138,1178,_ZNK7testing8internal16TypedExpectationIFvRKNSt7__cxx1112basic_stringIcSt11char_traitsIcESaIcEEEEE20ExplainMatchResultToERKSt5tupleIJS9_EEPSo
FN:1181,1209,_ZNK7testing8internal16TypedExpectationIFSt6vectorINSt7__cxx1112basic_stringIcSt11char_traitsIcESaIcEEESaIS8_EEmEE16GetCurrentActionEPKNS0_14FunctionMockerISB_EERKSt5tupleIJmEE
FN:1181,1209,_ZNK7testing8internal16TypedExpectationIFvRKNSt7__cxx1112basic_stringIcSt11char_traitsIcESaIcEEEEE16GetCurrentActionEPKNS0_14FunctionMockerISA_EERKSt5tupleIJS9_EE
FN:1218,1253,_ZN7testing8internal16TypedExpectationIFSt6vectorINSt7__cxx1112basic_stringIcSt11char_traitsIcESaIcEEESaIS8_EEmEE21GetActionForArgumentsEPKNS0_14FunctionMockerISB_EERKSt5tupleIJmEEPSoSL_
FN:1218,1253,_ZN7testing8internal16TypedExpectationIFvRKNSt7__cxx1112basic_stringIcSt11char_traitsIcESaIcEEEEE21GetActionForArgumentsEPKNS0_14FunctionMockerISA_EERKSt5tupleIJS9_EEPSoSK_
FN:1290,1292,_ZN7testing8internal8MockSpecIFSt6vectorINSt7__cxx1112basic_stringIcSt11char_traitsIcESaIcEEESaIS8_EEmEEC2EPNS0_14FunctionMockerISB_EERKSt5tupleIJNS_7MatcherImEEEE
FN:1290,1292,_ZN7testing8internal8MockSpecIFvRKNSt7__cxx1112basic_stringIcSt11char_traitsIcESaIcEEEEEC2EPNS0_14FunctionMockerISA_EERKSt5tupleIJNS_7MatcherIS9_EEEE
FN:1306,1314,_ZN7testing8internal8MockSpecIFSt6vectorINSt7__cxx1112basic_stringIcSt11char_traitsIcESaIcEEESaIS8_EEmEE18InternalExpectedAtEPKciSE_SE_
FN:1306,1314,_ZN7testing8internal8MockSpecIFvRKNSt7__cxx1112basic_stringIcSt11char_traitsIcESaIcEEEEE18InternalExpectedAtEPKciSD_SD_
FN:1319,1321,_ZN7testing8internal8MockSpecIFSt6vectorINSt7__cxx1112basic_stringIcSt11char_traitsIcESaIcEEESaIS8_EEmEEclERKNS0_15WithoutMatchersEPv
FN:1319,1321,_ZN7testing8internal8MockSpecIFvRKNSt7__cxx1112basic_stringIcSt11char_traitsIcESaIcEEEEEclERKNS0_15WithoutMatchersEPv
FN:1381,1385,_ZN7testing8internal19PrintAsActionResultISt6vectorINSt7__cxx1112basic_stringIcSt11char_traitsIcESaIcEEESaIS8_EEEEvRKT_RSo
FN:1406,1408,_ZN7testing8internal25UntypedFunctionMockerBase31UninterestingCallCleanupHandlerD2Ev
FN:1419,1434,_ZN7testing8internal25UntypedFunctionMockerBase21FailureCleanupHandlerD2Ev
FN:1449,1449,_ZN7testing8internal14FunctionMockerIFSt6vectorINSt7__cxx1112basic_stringIcSt11char_traitsIcESaIcEEESaIS8_EEmEEC2Ev
FN:1449,1449,_ZN7testing8internal14FunctionMockerIFvRKNSt7__cxx1112basic_stringIcSt11char_traitsIcESaIcEEEEEC2Ev
FN:1469,1474,_ZN7testing8internal14FunctionMockerIFSt6vectorINSt7__cxx1112basic_stringIcSt11char_traitsIcESaIcEEESaIS8_EEmEED0Ev
FN:1469,1474,_ZN7testing8internal14FunctionMockerIFSt6vectorINSt7__cxx1112basic_stringIcSt11char_traitsIcESaIcEEESaIS8_EEmEED2Ev
FN:1469,1474,_ZN7testing8internal14FunctionMockerIFvRKNSt7__cxx1112basic_stringIcSt11char_traitsIcESaIcEEEEED0Ev
FN:1469,1474,_ZN7testing8internal14FunctionMockerIFvRKNSt7__cxx1112basic_stringIcSt11char_traitsIcESaIcEEEEED2Ev
FN:1479,1488,_ZNK7testing8internal14FunctionMockerIFSt6vectorINSt7__cxx1112basic_stringIcSt11char_traitsIcESaIcEEESaIS8_EEmEE14FindOnCallSpecERKSt5tupleIJmEE
FN:1479,1488,_ZNK7testing8internal14FunctionMockerIFvRKNSt7__cxx1112basic_stringIcSt11char_traitsIcESaIcEEEEE14FindOnCallSpecERKSt5tupleIJS9_EE
FN:1497,1515,_ZNK7testing8internal14FunctionMockerIFSt6vectorINSt7__cxx1112basic_stringIcSt11char_traitsIcESaIcEEESaIS8_EEmEE20PerformDefaultActionEOSt5tupleIJmEERKS8_
FN:1497,1515,_ZNK7testing8internal14FunctionMockerIFvRKNSt7__cxx1112basic_stringIcSt11char_traitsIcESaIcEEEEE20PerformDefaultActionEOSt5tupleIJS9_EES9_
FN:1519,1542,_ZN7testing8internal14FunctionMockerIFSt6vectorINSt7__cxx1112basic_stringIcSt11char_traitsIcESaIcEEESaIS8_EEmEE25ClearDefaultActionsLockedEv
FN:1519,1542,_ZN7testing8internal14FunctionMockerIFvRKNSt7__cxx1112basic_stringIcSt11char_traitsIcESaIcEEEEE25ClearDefaultActionsLockedEv
FN:1547,1549,_ZN7testing8internal14FunctionMockerIFSt6vectorINSt7__cxx1112basic_stringIcSt11char_traitsIcESaIcEEESaIS8_EEmEE6InvokeEm
FN:1547,1549,_ZN7testing8internal14FunctionMockerIFvRKNSt7__cxx1112basic_stringIcSt11char_traitsIcESaIcEEEEE6InvokeES9_
FN:1551,1553,_ZN7testing8internal14FunctionMockerIFSt6vectorINSt7__cxx1112basic_stringIcSt11char_traitsIcESaIcEEESaIS8_EEmEE4WithENS_7MatcherImEE
FN:1551,1553,_ZN7testing8internal14FunctionMockerIFvRKNSt7__cxx1112basic_stringIcSt11char_traitsIcESaIcEEEEE4WithENS_7MatcherIS9_EE
FN:1570,1589,_ZN7testing8internal14FunctionMockerIFSt6vectorINSt7__cxx1112basic_stringIcSt11char_traitsIcESaIcEEESaIS8_EEmEE17AddNewExpectationEPKciRKS8_RKSt5tupleIJNS_7MatcherImEEEE
FN:1570,1589,_ZN7testing8internal14FunctionMockerIFvRKNSt7__cxx1112basic_stringIcSt11char_traitsIcESaIcEEEEE17AddNewExpectationEPKciS9_RKSt5tupleIJNS_7MatcherIS9_EEEE
FN:1600,1611,_ZNK7testing8internal14FunctionMockerIFSt6vectorINSt7__cxx1112basic_stringIcSt11char_traitsIcESaIcEEESaIS8_EEmEE23DescribeDefaultActionToERKSt5tupleIJmEEPSo
FN:1600,1611,_ZNK7testing8internal14FunctionMockerIFvRKNSt7__cxx1112basic_stringIcSt11char_traitsIcESaIcEEEEE23DescribeDefaultActionToERKSt5tupleIJS9_EEPSo
FN:1616,1625,_ZNK7testing8internal14FunctionMockerIFSt6vectorINSt7__cxx1112basic_stringIcSt11char_traitsIcESaIcEEESaIS8_EEmEE32UntypedDescribeUninterestingCallEPKvPSo
FN:1616,1625,_ZNK7testing8internal14FunctionMockerIFvRKNSt7__cxx1112basic_stringIcSt11char_traitsIcESaIcEEEEE32UntypedDescribeUninterestingCallEPKvPSo
FN:1643,1665,_ZN7testing8internal14FunctionMockerIFSt6vectorINSt7__cxx1112basic_stringIcSt11char_traitsIcESaIcEEESaIS8_EEmEE30UntypedFindMatchingExpectationEPKvPSE_PbPSoSH_
FN:1643,1665,_ZN7testing8internal14FunctionMockerIFvRKNSt7__cxx1112basic_stringIcSt11char_traitsIcESaIcEEEEE30UntypedFindMatchingExpectationEPKvPSD_PbPSoSG_
FN:1668,1673,_ZNK7testing8internal14FunctionMockerIFSt6vectorINSt7__cxx1112basic_stringIcSt11char_traitsIcESaIcEEESaIS8_EEmEE16UntypedPrintArgsEPKvPSo
FN:1668,1673,_ZNK7testing8internal14FunctionMockerIFvRKNSt7__cxx1112basic_stringIcSt11char_traitsIcESaIcEEEEE16UntypedPrintArgsEPKvPSo
FN:1677,1692,_ZNK7testing8internal14FunctionMockerIFSt6vectorINSt7__cxx1112basic_stringIcSt11char_traitsIcESaIcEEESaIS8_EEmEE29FindMatchingExpectationLockedERKSt5tupleIJmEE
FN:1677,1692,_ZNK7testing8internal14FunctionMockerIFvRKNSt7__cxx1112basic_stringIcSt11char_traitsIcESaIcEEEEE29FindMatchingExpectationLockedERKSt5tupleIJS9_EE
FN:1695,1703,_ZNK7testing8internal14FunctionMockerIFSt6vectorINSt7__cxx1112basic_stringIcSt11char_traitsIcESaIcEEESaIS8_EEmEE33FormatUnexpectedCallMessageLockedERKSt5tupleIJmEEPSoSH_
FN:1695,1703,_ZNK7testing8internal14FunctionMockerIFvRKNSt7__cxx1112basic_stringIcSt11char_traitsIcESaIcEEEEE33FormatUnexpectedCallMessageLockedERKSt5tupleIJS9_EEPSoSG_
FN:1707,1728,_ZNK7testing8internal14FunctionMockerIFSt6vectorINSt7__cxx1112basic_stringIcSt11char_traitsIcESaIcEEESaIS8_EEmEE28PrintTriedExpectationsLockedERKSt5tupleIJmEEPSo
FN:1707,1728,_ZNK7testing8internal14FunctionMockerIFvRKNSt7__cxx1112basic_stringIcSt11char_traitsIcESaIcEEEEE28PrintTriedExpectationsLockedERKSt5tupleIJS9_EEPSo
FN:1733,1743,_ZNK7testing8internal14FunctionMockerIFSt6vectorINSt7__cxx1112basic_stringIcSt11char_traitsIcESaIcEEESaIS8_EEmEE13PerformActionEPKvOSt5tupleIJmEERKS8_
FN:1733,1743,_ZNK7testing8internal14FunctionMockerIFvRKNSt7__cxx1112basic_stringIcSt11char_traitsIcESaIcEEEEE13PerformActionEPKvOSt5tupleIJS9_EES9_
FN:1758,1766,_ZN7testing8internal14FunctionMockerIFSt6vectorINSt7__cxx1112basic_stringIcSt11char_traitsIcESaIcEEESaIS8_EEmEE27PerformActionAndPrintResultISA_Li0EEESA_PKvOSt5tupleIJmEERKS8_RSo
FN:1773,1778,_ZN7testing8internal14FunctionMockerIFvRKNSt7__cxx1112basic_stringIcSt11char_traitsIcESaIcEEEEE27PerformActionAndPrintResultIvLi0EEEvPKvOSt5tupleIJS9_EES9_RSo
FN:1789,1896,_ZN7testing8internal14FunctionMockerIFSt6vectorINSt7__cxx1112basic_stringIcSt11char_traitsIcESaIcEEESaIS8_EEmEE10InvokeWithEOSt5tupleIJmEE
FN:1789,1896,_ZN7testing8internal14FunctionMockerIFvRKNSt7__cxx1112basic_stringIcSt11char_traitsIcESaIcEEEEE10InvokeWithEOSt5tupleIJS9_EE
FN:246,246,_ZNK7testing8internal21UntypedOnCallSpecBase4fileEv
FN:247,247,_ZNK7testing8internal21UntypedOnCallSpecBase4lineEv
FN:260,263,_ZNK7testing8internal21UntypedOnCallSpecBase18AssertSpecPropertyEbRKNSt7__cxx1112basic_stringIcSt11char_traitsIcESaIcEEE
FN:323,325,_ZNK7testing8internal10OnCallSpecIFSt6vectorINSt7__cxx1112basic_stringIcSt11char_traitsIcESaIcEEESaIS8_EEmEE7MatchesERKSt5tupleIJmEE
FN:323,325,_ZNK7testing8internal10OnCallSpecIFvRKNSt7__cxx1112basic_stringIcSt11char_traitsIcESaIcEEEEE7MatchesERKSt5tupleIJS9_EE
FN:328,333,_ZNK7testing8internal10OnCallSpecIFSt6vectorINSt7__cxx1112basic_stringIcSt11char_traitsIcESaIcEEESaIS8_EEmEE9GetActionEv
FN:328,333,_ZNK7testing8internal10OnCallSpecIFvRKNSt7__cxx1112basic_stringIcSt11char_traitsIcESaIcEEEEE9GetActionEv
FN:539,541,_ZNK7testing11Expectation16expectation_baseEv
FN:569,569,_ZN7testing14ExpectationSetC2Ev
FN:605,605,_ZNK7testing14ExpectationSet5beginEv
FN:606,606,_ZNK7testing14ExpectationSet3endEv
FN:693,693,_ZNK7testing8internal15ExpectationBase4fileEv
FN:694,694,_ZNK7testing8internal15ExpectationBase4lineEv
FN:695,695,_ZNK7testing8internal15ExpectationBase11source_textEv
FN:697,697,_ZNK7testing8internal15ExpectationBase11cardinalityEv
FN:700,702,_ZNK7testing8internal15ExpectationBase18DescribeLocationToEPSo
FN:748,751,_ZNK7testing8internal15ExpectationBase18ExpectSpecPropertyEbRKNSt7__cxx1112basic_stringIcSt11char_traitsIcESaIcEEE
FN:759,759,_ZNK7testing8internal15ExpectationBase21cardinality_specifiedEv
FN:762,764,_ZN7testing8internal15ExpectationBase15set_cardinalityERKNS_11CardinalityE
FN:774,777,_ZNK7testing8internal15ExpectationBase10is_retiredEv
FN:780,783,_ZN7testing8internal15ExpectationBase6RetireEv
FN:787,787,_ZNK7testing8internal15ExpectationBase14GetDescriptionB5cxx11Ev
FN:796,799,_ZNK7testing8internal15ExpectationBase11IsSaturatedEv
FN:817,820,_ZNK7testing8internal15ExpectationBase10call_countEv
FN:823,826,_ZN7testing8internal15ExpectationBase18IncrementCallCountEv
FN:887,897,_ZN7testing8internal16TypedExpectationIFSt6vectorINSt7__cxx1112basic_stringIcSt11char_traitsIcESaIcEEESaIS8_EEmEEC2EPNS0_14FunctionMockerISB_EEPKciRKS8_RKSt5tupleIJNS_7MatcherImEEEE
FN:887,897,_ZN7testing8internal16TypedExpectationIFvRKNSt7__cxx1112basic_stringIcSt11char_traitsIcESaIcEEEEEC2EPNS0_14FunctionMockerISA_EEPKciS9_RKSt5tupleIJNS_7MatcherIS9_EEEE
FN:899,907,_ZN7testing8internal16TypedExpectationIFSt6vectorINSt7__cxx1112basic_stringIcSt11char_traitsIcESaIcEEESaIS8_EEmEED0Ev
FN:899,907,_ZN7testing8internal16TypedExpectationIFSt6vectorINSt7__cxx1112basic_stringIcSt11char_traitsIcESaIcEEESaIS8_EEmEED2Ev
FN:899,907,_ZN7testing8internal16TypedExpectationIFvRKNSt7__cxx1112basic_stringIcSt11char_traitsIcESaIcEEEEED0Ev
FN:899,907,_ZN7testing8internal16TypedExpectationIFvRKNSt7__cxx1112basic_stringIcSt11char_traitsIcESaIcEEEEED2Ev
FN:935,938,_ZN7testing8internal16TypedExpectationIFSt6vectorINSt7__cxx1112basic_stringIcSt11char_traitsIcESaIcEEESaIS8_EEmEE5TimesERKNS_11CardinalityE
FN:935,938,_ZN7testing8internal16TypedExpectationIFvRKNSt7__cxx1112basic_stringIcSt11char_traitsIcESaIcEEEEE5TimesERKNS_11CardinalityE
FN:941,941,_ZN7testing8internal16TypedExpectationIFSt6vectorINSt7__cxx1112basic_stringIcSt11char_traitsIcESaIcEEESaIS8_EEmEE5TimesEi
FN:941,941,_ZN7testing8internal16TypedExpectationIFvRKNSt7__cxx1112basic_stringIcSt11char_traitsIcESaIcEEEEE5TimesEi
FNDA:1,_ZN7testing8internal16TypedExpectationIFSt6vectorINSt7__cxx1112basic_stringIcSt11char_traitsIcESaIcEEESaIS8_EEmEE8WillOnceENS_10OnceActionISB_EE
FNDA:1,_ZN7testing8internal16TypedExpectationIFSt6vectorINSt7__cxx1112basic_stringIcSt11char_traitsIcESaIcEEESaIS8_EEmEE8WillOnceIJEvEERSC_NS_6ActionISB_EE
FNDA:0,_ZNK7testing8internal16TypedExpectationIFSt6vectorINSt7__cxx1112basic_stringIcSt11char_traitsIcESaIcEEESaIS8_EEmEE15repeated_actionEv
FNDA:5,_ZNK7testing8internal16TypedExpectationIFvRKNSt7__cxx1112basic_stringIcSt11char_traitsIcESaIcEEEEE15repeated_actionEv
FNDA:0,_ZN7testing8internal16TypedExpectationIFSt6vectorINSt7__cxx1112basic_stringIcSt11char_traitsIcESaIcEEESaIS8_EEmEE27MaybeDescribeExtraMatcherToEPSo
FNDA:0,_ZN7testing8internal16TypedExpectationIFvRKNSt7__cxx1112basic_stringIcSt11char_traitsIcESaIcEEEEE27MaybeDescribeExtraMatcherToEPSo
FNDA:1,_ZNK7testing8internal16TypedExpectationIFSt6vectorINSt7__cxx1112basic_stringIcSt11char_traitsIcESaIcEEESaIS8_EEmEE13ActionAdaptorclEOm
FNDA:0,_ZN7testing8internal16TypedExpectationIFSt6vectorINSt7__cxx1112basic_stringIcSt11char_traitsIcESaIcEEESaIS8_EEmEE9GetHandleEv
FNDA:0,_ZN7testing8internal16TypedExpectationIFvRKNSt7__cxx1112basic_stringIcSt11char_traitsIcESaIcEEEEE9GetHandleEv
FNDA:1,_ZNK7testing8internal16TypedExpectationIFSt6vectorINSt7__cxx1112basic_stringIcSt11char_traitsIcESaIcEEESaIS8_EEmEE7MatchesERKSt5tupleIJmEE
FNDA:5,_ZNK7testing8internal16TypedExpectationIFvRKNSt7__cxx1112basic_stringIcSt11char_traitsIcESaIcEEEEE7MatchesERKSt5tupleIJS9_EE
FNDA:1,_ZNK7testing8internal16TypedExpectationIFSt6vectorINSt7__cxx1112basic_stringIcSt11char_traitsIcESaIcEEESaIS8_EEmEE21ShouldHandleArgumentsERKSt5tupleIJmEE
FNDA:5,_ZNK7testing8internal16TypedExpectationIFvRKNSt7__cxx1112basic_stringIcSt11char_traitsIcESaIcEEEEE21ShouldHandleArgumentsERKSt5tupleIJS9_EE
FNDA:0,_ZNK7testing8internal16TypedExpectationIFSt6vectorINSt7__cxx1112basic_stringIcSt11char_traitsIcESaIcEEESaIS8_EEmEE20ExplainMatchResultToERKSt5tupleIJmEEPSo
FNDA:0,_ZNK7testing8internal16TypedExpectationIFvRKNSt7__cxx1112basic_stringIcSt11char_traitsIcESaIcEEEEE20ExplainMatchResultToERKSt5tupleIJS9_EEPSo
FNDA:1,_ZNK7testing8internal16TypedExpectationIFSt6vectorINSt7__cxx1112basic_stringIcSt11char_traitsIcESaIcEEESaIS8_EEmEE16GetCurrentActionEPKNS0_14FunctionMockerISB_EERKSt5tupleIJmEE
FNDA:5,_ZNK7testing8internal16TypedExpectationIFvRKNSt7__cxx1112basic_stringIcSt11char_traitsIcESaIcEEEEE16GetCurrentActionEPKNS0_14FunctionMockerISA_EERKSt5tupleIJS9_EE
FNDA:1,_ZN7testing8internal16TypedExpectationIFSt6vectorINSt7__cxx1112basic_stringIcSt11char_traitsIcESaIcEEESaIS8_EEmEE21GetActionForArgumentsEPKNS0_14FunctionMockerISB_EERKSt5tupleIJmEEPSoSL_
FNDA:5,_ZN7testing8internal16TypedExpectationIFvRKNSt7__cxx1112basic_stringIcSt11char_traitsIcESaIcEEEEE21GetActionForArgumentsEPKNS0_14FunctionMockerISA_EERKSt5tupleIJS9_EEPSoSK_
FNDA:1,_ZN7testing8internal8MockSpecIFSt6vectorINSt7__cxx1112basic_stringIcSt11char_traitsIcESaIcEEESaIS8_EEmEEC2EPNS0_14FunctionMockerISB_EERKSt5tupleIJNS_7MatcherImEEEE
FNDA:5,_ZN7testing8internal8MockSpecIFvRKNSt7__cxx1112basic_stringIcSt11char_traitsIcESaIcEEEEEC2EPNS0_14FunctionMockerISA_EERKSt5tupleIJNS_7MatcherIS9_EEEE
FNDA:1,_ZN7testing8internal8MockSpecIFSt6vectorINSt7__cxx1112basic_stringIcSt11char_traitsIcESaIcEEESaIS8_EEmEE18InternalExpectedAtEPKciSE_SE_
FNDA:5,_ZN7testing8internal8MockSpecIFvRKNSt7__cxx1112basic_stringIcSt11char_traitsIcESaIcEEEEE18InternalExpectedAtEPKciSD_SD_
FNDA:1,_ZN7testing8internal8MockSpecIFSt6vectorINSt7__cxx1112basic_stringIcSt11char_traitsIcESaIcEEESaIS8_EEmEEclERKNS0_15WithoutMatchersEPv
FNDA:5,_ZN7testing8internal8MockSpecIFvRKNSt7__cxx1112basic_stringIcSt11char_traitsIcESaIcEEEEEclERKNS0_15WithoutMatchersEPv
FNDA:0,_ZN7testing8internal19PrintAsActionResultISt6vectorINSt7__cxx1112basic_stringIcSt11char_traitsIcESaIcEEESaIS8_EEEEvRKT_RSo
FNDA:0,_ZN7testing8internal25UntypedFunctionMockerBase31UninterestingCallCleanupHandlerD2Ev
FNDA:0,_ZN7testing8internal25UntypedFunctionMockerBase21FailureCleanupHandlerD2Ev
FNDA:3,_ZN7testing8internal14FunctionMockerIFSt6vectorINSt7__cxx1112basic_stringIcSt11char_traitsIcESaIcEEESaIS8_EEmEEC2Ev
FNDA:3,_ZN7testing8internal14FunctionMockerIFvRKNSt7__cxx1112basic_stringIcSt11char_traitsIcESaIcEEEEEC2Ev
FNDA:0,_ZN7testing8internal14FunctionMockerIFSt6vectorINSt7__cxx1112basic_stringIcSt11char_traitsIcESaIcEEESaIS8_EEmEED0Ev
FNDA:3,_ZN7testing8internal14FunctionMockerIFSt6vectorINSt7__cxx1112basic_stringIcSt11char_traitsIcESaIcEEESaIS8_EEmEED2Ev
FNDA:0,_ZN7testing8internal14FunctionMockerIFvRKNSt7__cxx1112basic_stringIcSt11char_traitsIcESaIcEEEEED0Ev
FNDA:3,_ZN7testing8internal14FunctionMockerIFvRKNSt7__cxx1112basic_stringIcSt11char_traitsIcESaIcEEEEED2Ev
FNDA:0,_ZNK7testing8internal14FunctionMockerIFSt6vectorINSt7__cxx1112basic_stringIcSt11char_traitsIcESaIcEEESaIS8_EEmEE14FindOnCallSpecERKSt5tupleIJmEE
FNDA:5,_ZNK7testing8internal14FunctionMockerIFvRKNSt7__cxx1112basic_stringIcSt11char_traitsIcESaIcEEEEE14FindOnCallSpecERKSt5tupleIJS9_EE
FNDA:0,_ZNK7testing8internal14FunctionMockerIFSt6vectorINSt7__cxx1112basic_stringIcSt11char_traitsIcESaIcEEESaIS8_EEmEE20PerformDefaultActionEOSt5tupleIJmEERKS8_
FNDA:5,_ZNK7testing8internal14FunctionMockerIFvRKNSt7__cxx1112basic_stringIcSt11char_traitsIcESaIcEEEEE20PerformDefaultActionEOSt5tupleIJS9_EES9_
FNDA:3,_ZN7testing8internal14FunctionMockerIFSt6vectorINSt7__cxx1112basic_stringIcSt11char_traitsIcESaIcEEESaIS8_EEmEE25ClearDefaultActionsLockedEv
FNDA:3,_ZN7testing8internal14FunctionMockerIFvRKNSt7__cxx1112basic_stringIcSt11char_traitsIcESaIcEEEEE25ClearDefaultActionsLockedEv
FNDA:1,_ZN7testing8internal14FunctionMockerIFSt6vectorINSt7__cxx1112basic_stringIcSt11char_traitsIcESaIcEEESaIS8_EEmEE6InvokeEm
FNDA:5,_ZN7testing8internal14FunctionMockerIFvRKNSt7__cxx1112basic_stringIcSt11char_traitsIcESaIcEEEEE6InvokeES9_
FNDA:1,_ZN7testing8internal14FunctionMockerIFSt6vectorINSt7__cxx1112basic_stringIcSt11char_traitsIcESaIcEEESaIS8_EEmEE4WithENS_7MatcherImEE
FNDA:5,_ZN7testing8internal14FunctionMockerIFvRKNSt7__cxx1112basic_stringIcSt11char_traitsIcESaIcEEEEE4WithENS_7MatcherIS9_EE
FNDA:1,_ZN7testing8internal14FunctionMockerIFSt6vectorINSt7__cxx1112basic_stringIcSt11char_traitsIcESaIcEEESaIS8_EEmEE17AddNewExpectationEPKciRKS8_RKSt5tupleIJNS_7MatcherImEEEE
FNDA:5,_ZN7testing8internal14FunctionMockerIFvRKNSt7__cxx1112basic_stringIcSt11char_traitsIcESaIcEEEEE17AddNewExpectationEPKciS9_RKSt5tupleIJNS_7MatcherIS9_EEEE
FNDA:0,_ZNK7testing8internal14FunctionMockerIFSt6vectorINSt7__cxx1112basic_stringIcSt11char_traitsIcESaIcEEESaIS8_EEmEE23DescribeDefaultActionToERKSt5tupleIJmEEPSo
FNDA:0,_ZNK7testing8internal14FunctionMockerIFvRKNSt7__cxx1112basic_stringIcSt11char_traitsIcESaIcEEEEE23DescribeDefaultActionToERKSt5tupleIJS9_EEPSo
FNDA:0,_ZNK7testing8internal14FunctionMockerIFSt6vectorINSt7__cxx1112basic_stringIcSt11char_traitsIcESaIcEEESaIS8_EEmEE32UntypedDescribeUninterestingCallEPKvPSo
FNDA:0,_ZNK7testing8internal14FunctionMockerIFvRKNSt7__cxx1112basic_stringIcSt11char_traitsIcESaIcEEEEE32UntypedDescribeUninterestingCallEPKvPSo
FNDA:1,_ZN7testing8internal14FunctionMockerIFSt6vectorINSt7__cxx1112basic_stringIcSt11char_traitsIcESaIcEEESaIS8_EEmEE30UntypedFindMatchingExpectationEPKvPSE_PbPSoSH_
FNDA:5,_ZN7testing8internal14FunctionMockerIFvRKNSt7__cxx1112basic_stringIcSt11char_traitsIcESaIcEEEEE30UntypedFindMatchingExpectationEPKvPSD_PbPSoSG_
FNDA:0,_ZNK7testing8internal14FunctionMockerIFSt6vectorINSt7__cxx1112basic_stringIcSt11char_traitsIcESaIcEEESaIS8_EEmEE16UntypedPrintArgsEPKvPSo
FNDA:0,_ZNK7testing8internal14FunctionMockerIFvRKNSt7__cxx1112basic_stringIcSt11char_traitsIcESaIcEEEEE16UntypedPrintArgsEPKvPSo
FNDA:1,_ZNK7testing8internal14FunctionMockerIFSt6vectorINSt7__cxx1112basic_stringIcSt11char_traitsIcESaIcEEESaIS8_EEmEE29FindMatchingExpectationLockedERKSt5tupleIJmEE
FNDA:5,_ZNK7testing8internal14FunctionMockerIFvRKNSt7__cxx1112basic_stringIcSt11char_traitsIcESaIcEEEEE29FindMatchingExpectationLockedERKSt5tupleIJS9_EE
FNDA:0,_ZNK7testing8internal14FunctionMockerIFSt6vectorINSt7__cxx1112basic_stringIcSt11char_traitsIcESaIcEEESaIS8_EEmEE33FormatUnexpectedCallMessageLockedERKSt5tupleIJmEEPSoSH_
FNDA:0,_ZNK7testing8internal14FunctionMockerIFvRKNSt7__cxx1112basic_stringIcSt11char_traitsIcESaIcEEEEE33FormatUnexpectedCallMessageLockedERKSt5tupleIJS9_EEPSoSG_
FNDA:0,_ZNK7testing8internal14FunctionMockerIFSt6vectorINSt7__cxx1112basic_stringIcSt11char_traitsIcESaIcEEESaIS8_EEmEE28PrintTriedExpectationsLockedERKSt5tupleIJmEEPSo
FNDA:0,_ZNK7testing8internal14FunctionMockerIFvRKNSt7__cxx1112basic_stringIcSt11char_traitsIcESaIcEEEEE28PrintTriedExpectationsLockedERKSt5tupleIJS9_EEPSo
FNDA:1,_ZNK7testing8internal14FunctionMockerIFSt6vectorINSt7__cxx1112basic_stringIcSt11char_traitsIcESaIcEEESaIS8_EEmEE13PerformActionEPKvOSt5tupleIJmEERKS8_
FNDA:5,_ZNK7testing8internal14FunctionMockerIFvRKNSt7__cxx1112basic_stringIcSt11char_traitsIcESaIcEEEEE13PerformActionEPKvOSt5tupleIJS9_EES9_
FNDA:0,_ZN7testing8internal14FunctionMockerIFSt6vectorINSt7__cxx1112basic_stringIcSt11char_traitsIcESaIcEEESaIS8_EEmEE27PerformActionAndPrintResultISA_Li0EEESA_PKvOSt5tupleIJmEERKS8_RSo
FNDA:0,_ZN7testing8internal14FunctionMockerIFvRKNSt7__cxx1112basic_stringIcSt11char_traitsIcESaIcEEEEE27PerformActionAndPrintResultIvLi0EEEvPKvOSt5tupleIJS9_EES9_RSo
FNDA:1,_ZN7testing8internal14FunctionMockerIFSt6vectorINSt7__cxx1112basic_stringIcSt11char_traitsIcESaIcEEESaIS8_EEmEE10InvokeWithEOSt5tupleIJmEE
FNDA:5,_ZN7testing8internal14FunctionMockerIFvRKNSt7__cxx1112basic_stringIcSt11char_traitsIcESaIcEEEEE10InvokeWithEOSt5tupleIJS9_EE
FNDA:0,_ZNK7testing8internal21UntypedOnCallSpecBase4fileEv
FNDA:0,_ZNK7testing8internal21UntypedOnCallSpecBase4lineEv
FNDA:0,_ZNK7testing8internal21UntypedOnCallSpecBase18AssertSpecPropertyEbRKNSt7__cxx1112basic_stringIcSt11char_traitsIcESaIcEEE
FNDA:0,_ZNK7testing8internal10OnCallSpecIFSt6vectorINSt7__cxx1112basic_stringIcSt11char_traitsIcESaIcEEESaIS8_EEmEE7MatchesERKSt5tupleIJmEE
FNDA:0,_ZNK7testing8internal10OnCallSpecIFvRKNSt7__cxx1112basic_stringIcSt11char_traitsIcESaIcEEEEE7MatchesERKSt5tupleIJS9_EE
FNDA:0,_ZNK7testing8internal10OnCallSpecIFSt6vectorINSt7__cxx1112basic_stringIcSt11char_traitsIcESaIcEEESaIS8_EEmEE9GetActionEv
FNDA:0,_ZNK7testing8internal10OnCallSpecIFvRKNSt7__cxx1112basic_stringIcSt11char_traitsIcESaIcEEEEE9GetActionEv
FNDA:0,_ZNK7testing11Expectation16expectation_baseEv
FNDA:6,_ZN7testing14ExpectationSetC2Ev
FNDA:12,_ZNK7testing14ExpectationSet5beginEv
FNDA:12,_ZNK7testing14ExpectationSet3endEv
FNDA:0,_ZNK7testing8internal15ExpectationBase4fileEv
FNDA:0,_ZNK7testing8internal15ExpectationBase4lineEv
FNDA:6,_ZNK7testing8internal15ExpectationBase11source_textEv
FNDA:36,_ZNK7testing8internal15ExpectationBase11cardinalityEv
FNDA:0,_ZNK7testing8internal15ExpectationBase18DescribeLocationToEPSo
FNDA:7,_ZNK7testing8internal15ExpectationBase18ExpectSpecPropertyEbRKNSt7__cxx1112basic_stringIcSt11char_traitsIcESaIcEEE
FNDA:1,_ZNK7testing8internal15ExpectationBase21cardinality_specifiedEv
FNDA:0,_ZN7testing8internal15ExpectationBase15set_cardinalityERKNS_11CardinalityE
FNDA:12,_ZNK7testing8internal15ExpectationBase10is_retiredEv
FNDA:0,_ZN7testing8internal15ExpectationBase6RetireEv
FNDA:6,_ZNK7testing8internal15ExpectationBase14GetDescriptionB5cxx11Ev
FNDA:12,_ZNK7testing8internal15ExpectationBase11IsSaturatedEv
FNDA:6,_ZNK7testing8internal15ExpectationBase10call_countEv
FNDA:6,_ZN7testing8internal15ExpectationBase18IncrementCallCountEv
FNDA:1,_ZN7testing8internal16TypedExpectationIFSt6vectorINSt7__cxx1112basic_stringIcSt11char_traitsIcESaIcEEESaIS8_EEmEEC2EPNS0_14FunctionMockerISB_EEPKciRKS8_RKSt5tupleIJNS_7MatcherImEEEE
FNDA:5,_ZN7testing8internal16TypedExpectationIFvRKNSt7__cxx1112basic_stringIcSt11char_traitsIcESaIcEEEEEC2EPNS0_14FunctionMockerISA_EEPKciS9_RKSt5tupleIJNS_7MatcherIS9_EEEE
FNDA:1,_ZN7testing8internal16TypedExpectationIFSt6vectorINSt7__cxx1112basic_stringIcSt11char_traitsIcESaIcEEESaIS8_EEmEED0Ev
FNDA:1,_ZN7testing8internal16TypedExpectationIFSt6vectorINSt7__cxx1112basic_stringIcSt11char_traitsIcESaIcEEESaIS8_EEmEED2Ev
FNDA:5,_ZN7testing8internal16TypedExpectationIFvRKNSt7__cxx1112basic_stringIcSt11char_traitsIcESaIcEEEEED0Ev
FNDA:5,_ZN7testing8internal16TypedExpectationIFvRKNSt7__cxx1112basic_stringIcSt11char_traitsIcESaIcEEEEED2Ev
FNDA:1,_ZN7testing8internal16TypedExpectationIFSt6vectorINSt7__cxx1112basic_stringIcSt11char_traitsIcESaIcEEESaIS8_EEmEE5TimesERKNS_11CardinalityE
FNDA:5,_ZN7testing8internal16TypedExpectationIFvRKNSt7__cxx1112basic_stringIcSt11char_traitsIcESaIcEEEEE5TimesERKNS_11CardinalityE
FNDA:1,_ZN7testing8internal16TypedExpectationIFSt6vectorINSt7__cxx1112basic_stringIcSt11char_traitsIcESaIcEEESaIS8_EEmEE5TimesEi
FNDA:4,_ZN7testing8internal16TypedExpectationIFvRKNSt7__cxx1112basic_stringIcSt11char_traitsIcESaIcEEEEE5TimesEi
FNF:101
FNH:62
DA:246,0
DA:247,0
DA:260,0
DA:262,0
DA:263,0
DA:323,0
DA:324,0
DA:328,0
DA:329,0
DA:332,0
DA:539,0
DA:540,0
DA:569,6
DA:605,12
DA:606,12
DA:693,0
DA:694,0
DA:695,6
DA:697,36
DA:700,0
DA:701,0
DA:702,0
DA:748,7
DA:750,7
DA:751,7
DA:759,1
DA:762,0
DA:763,0
DA:764,0
DA:774,12
DA:775,12
DA:776,12
DA:780,0
DA:781,0
DA:782,0
DA:783,0
DA:787,6
DA:796,12
DA:797,12
DA:798,12
DA:817,6
DA:818,6
DA:819,6
DA:823,6
DA:824,6
DA:825,6
DA:826,6
DA:887,6
DA:891,6
DA:892,6
DA:896,6
DA:897,12
DA:899,12
DA:902,6
DA:903,6
DA:904,7
DA:905,1
DA:907,18
DA:935,6
DA:936,6
DA:937,6
DA:941,5
DA:1003,1
DA:1007,2
DA:1008,1
DA:1009,2
DA:1010,1
DA:1018,1
DA:1019,2
DA:1022,1
DA:1024,1
DA:1026,1
DA:1027,0
DA:1029,1
DA:1081,5
DA:1085,0
DA:1086,0
DA:1087,0
DA:1088,0
DA:1089,0
DA:1091,0
DA:1102,1
DA:1103,1
DA:1109,0
DA:1116,6
DA:1118,6
DA:1119,6
DA:1124,6
DA:1126,6
DA:1132,6
DA:1133,6
DA:1138,0
DA:1140,0
DA:1142,0
DA:1144,0
DA:1145,0
DA:1146,0
DA:1147,0
DA:1149,0
DA:1150,0
DA:1151,0
DA:1152,0
DA:1153,0
DA:1155,0
DA:1156,0
DA:1158,0
DA:1161,0
DA:1162,0
DA:1163,0
DA:1164,0
DA:1165,0
DA:1166,0
DA:1167,0
DA:1168,0
DA:1170,0
DA:1171,0
DA:1176,0
DA:1178,0
DA:1181,6
DA:1184,6
DA:1185,6
DA:1186,6
DA:1190,6
DA:1191,6
DA:1195,0
DA:1196,0
DA:1198,0
DA:1200,0
DA:1201,0
DA:1202,0
DA:1203,0
DA:1206,7
DA:1207,1
DA:1208,6
DA:1218,6
DA:1223,6
DA:1224,6
DA:1225,6
DA:1227,0
DA:1228,0
DA:1229,0
DA:1230,0
DA:1232,0
DA:1233,0
DA:1234,0
DA:1236,0
DA:1239,6
DA:1240,6
DA:1242,6
DA:1243,0
DA:1247,6
DA:1248,6
DA:1249,0
DA:1251,6
DA:1252,6
DA:1290,6
DA:1292,6
DA:1306,6
DA:1309,6
DA:1311,6
DA:1312,12
DA:1313,12
DA:1314,6
DA:1319,6
DA:1320,6
DA:1381,0
DA:1382,0
DA:1384,0
DA:1385,0
DA:1406,0
DA:1407,0
DA:1408,0
DA:1419,0
DA:1420,0
DA:1422,0
DA:1424,0
DA:1425,0
DA:1427,0
DA:1428,0
DA:1432,0
DA:1434,0
DA:1449,6
DA:1469,6
DA:1470,6
DA:1471,6
DA:1472,6
DA:1473,6
DA:1474,12
DA:1479,5
DA:1480,5
DA:1482,5
DA:1483,0
DA:1484,0
DA:1487,5
DA:1497,5
DA:1499,5
DA:1500,5
DA:1501,0
DA:1503,5
DA:1508,5
DA:1509,0
DA:1514,5
DA:1515,5
DA:1519,6
DA:1521,6
DA:1530,6
DA:1531,6
DA:1533,6
DA:1534,6
DA:1535,6
DA:1536,0
DA:1541,6
DA:1542,6
DA:1547,6
DA:1548,6
DA:1551,6
DA:1552,6
DA:1570,6
DA:1574,6
DA:1575,0
DA:1576,6
DA:1577,6
DA:1580,6
DA:1583,6
DA:1584,6
DA:1585,0
DA:1588,6
DA:1589,6
DA:1600,0
DA:1602,0
DA:1604,0
DA:1605,0
DA:1609,0
DA:1611,0
DA:1616,0
DA:1619,0
DA:1621,0
DA:1622,0
DA:1623,0
DA:1624,0
DA:1625,0
DA:1643,6
DA:1647,6
DA:1649,6
DA:1650,6
DA:1651,6
DA:1652,0
DA:1653,0
DA:1659,6
DA:1660,6
DA:1661,6
DA:1662,5
DA:1663,6
DA:1664,6
DA:1665,6
DA:1668,0
DA:1670,0
DA:1672,0
DA:1673,0
DA:1677,6
DA:1679,6
DA:1682,6
DA:1684,6
DA:1686,6
DA:1687,6
DA:1688,6
DA:1691,0
DA:1695,0
DA:1699,0
DA:1700,0
DA:1701,0
DA:1702,0
DA:1703,0
DA:1707,0
DA:1710,0
DA:1711,0
DA:1712,0
DA:1715,0
DA:1716,0
DA:1718,0
DA:1719,0
DA:1720,0
DA:1721,0
DA:1722,0
DA:1724,0
DA:1725,0
DA:1726,0
DA:1728,0
DA:1733,6
DA:1735,6
DA:1736,5
DA:1741,1
DA:1742,1
DA:1743,1
DA:1758,0
DA:1762,0
DA:1764,0
DA:1765,0
DA:1766,0
DA:1773,0
DA:1777,0
DA:1789,6
DA:1793,6
DA:1802,0
DA:1807,0
DA:1810,0
DA:1814,0
DA:1820,0
DA:1822,0
DA:1823,0
DA:1827,0
DA:1828,0
DA:1841,0
DA:1844,0
DA:1845,0
DA:1847,6
DA:1848,6
DA:1849,6
DA:1850,6
DA:1851,6
DA:1857,6
DA:1859,6
DA:1865,6
DA:1866,6
DA:1867,6
DA:1869,12
DA:1872,0
DA:1873,0
DA:1877,0
DA:1878,0
DA:1891,0
DA:1894,0
DA:1895,0
DA:1896,6
LF:334
LH:168
end_of_record
TN:
SF:/home/shasdor/CalcGTestHomeTask/CalcGTest/build/_deps/googletest-src/googlemock/include/gmock/internal/gmock-internal-utils.h
FN:243,249,_ZN7testing8internal6AssertEbPKciRKNSt7__cxx1112basic_stringIcSt11char_traitsIcESaIcEEE
FN:256,262,_ZN7testing8internal6ExpectEbPKciRKNSt7__cxx1112basic_stringIcSt11char_traitsIcESaIcEEE
FN:424,428,_ZN7testing8internal9ApplyImplIRKSt8functionIFSt6vectorINSt7__cxx1112basic_stringIcSt11char_traitsIcESaIcEEESaIS9_EEmEESt5tupleIJmEEJLm0EEEEDTclcl7forwardIT_Efp_Espcl3getIXT1_EEcl7forwardIT0_Efp0_EEEEOSI_OSJ_St16integer_sequenceImJXspT1_EEE
FN:424,428,_ZN7testing8internal9ApplyImplIRKSt8functionIFvRKNSt7__cxx1112basic_stringIcSt11char_traitsIcESaIcEEEEESt5tupleIJSA_EEJLm0EEEEDTclcl7forwardIT_Efp_Espcl3getIXT1_EEcl7forwardIT0_Efp0_EEEEOSH_OSI_St16integer_sequenceImJXspT1_EEE
FN:432,440,_ZN7testing8internal5ApplyIRKSt8functionIFSt6vectorINSt7__cxx1112basic_stringIcSt11char_traitsIcESaIcEEESaIS9_EEmEESt5tupleIJmEEEEDTcl9ApplyImplcl7forwardIT_Efp_Ecl7forwardIT0_Efp0_EcvSt16integer_sequenceImJXspcl14__integer_packcvmsrSt10tuple_sizeINSt16remove_referenceISJ_E4typeEE5valueEEEE_EEEOSI_OSJ_
FN:432,440,_ZN7testing8internal5ApplyIRKSt8functionIFvRKNSt7__cxx1112basic_stringIcSt11char_traitsIcESaIcEEEEESt5tupleIJSA_EEEEDTcl9ApplyImplcl7forwardIT_Efp_Ecl7forwardIT0_Efp0_EcvSt16integer_sequenceImJXspcl14__integer_packcvmsrSt10tuple_sizeINSt16remove_referenceISI_E4typeEE5valueEEEE_EEEOSH_OSI_
FNDA:12,_ZN7testing8internal6AssertEbPKciRKNSt7__cxx1112basic_stringIcSt11char_traitsIcESaIcEEE
FNDA:7,_ZN7testing8internal6ExpectEbPKciRKNSt7__cxx1112basic_stringIcSt11char_traitsIcESaIcEEE
FNDA:1,_ZN7testing8internal9ApplyImplIRKSt8functionIFSt6vectorINSt7__cxx1112basic_stringIcSt11char_traitsIcESaIcEEESaIS9_EEmEESt5tupleIJmEEJLm0EEEEDTclcl7forwardIT_Efp_Espcl3getIXT1_EEcl7forwardIT0_Efp0_EEEEOSI_OSJ_St16integer_sequenceImJXspT1_EEE
FNDA:0,_ZN7testing8internal9ApplyImplIRKSt8functionIFvRKNSt7__cxx1112basic_stringIcSt11char_traitsIcESaIcEEEEESt5tupleIJSA_EEJLm0EEEEDTclcl7forwardIT_Efp_Espcl3getIXT1_EEcl7forwardIT0_Efp0_EEEEOSH_OSI_St16integer_sequenceImJXspT1_EEE
FNDA:1,_ZN7testing8internal5ApplyIRKSt8functionIFSt6vectorINSt7__cxx1112basic_stringIcSt11char_traitsIcESaIcEEESaIS9_EEmEESt5tupleIJmEEEEDTcl9ApplyImplcl7forwardIT_Efp_Ecl7forwardIT0_Efp0_EcvSt16integer_sequenceImJXspcl14__integer_packcvmsrSt10tuple_sizeINSt16remove_referenceISJ_E4typeEE5valueEEEE_EEEOSI_OSJ_
FNDA:0,_ZN7testing8internal5ApplyIRKSt8functionIFvRKNSt7__cxx1112basic_stringIcSt11char_traitsIcESaIcEEEEESt5tupleIJSA_EEEEDTcl9ApplyImplcl7forwardIT_Efp_Ecl7forwardIT0_Efp0_EcvSt16integer_sequenceImJXspcl14__integer_packcvmsrSt10tuple_sizeINSt16remove_referenceISI_E4typeEE5valueEEEE_EEEOSH_OSI_
FNF:6
FNH:4
DA:243,12
DA:245,12
DA:246,0
DA:249,12
DA:256,7
DA:258,7
DA:259,0
DA:262,7
DA:424,1
DA:427,1
DA:432,1
DA:437,0
DA:439,1
LF:13
LH:10
end_of_record
TN:
SF:/home/shasdor/CalcGTestHomeTask/CalcGTest/build/_deps/googletest-src/googletest/include/gtest/gtest-assertion-result.h
FN:162,168,_ZN7testing15AssertionResultC2IbEERKT_PNSt9enable_ifIXntsrSt14is_convertibleIS2_S0_E5valueEvE4typeE
FN:181,181,_ZNK7testing15AssertionResultcvbEv
FN:190,192,_ZNK7testing15AssertionResult7messageEv
FN:194,194,_ZNK7testing15AssertionResult15failure_messageEv
FN:198,201,_ZN7testing15AssertionResultlsIA12_cEERS0_RKT_
FN:198,201,_ZN7testing15AssertionResultlsIA3_cEERS0_RKT_
FN:198,201,_ZN7testing15AssertionResultlsIA5_cEERS0_RKT_
FN:198,201,_ZN7testing15AssertionResultlsINSt7__cxx1112basic_stringIcSt11char_traitsIcESaIcEEEEERS0_RKT_
FN:198,201,_ZN7testing15AssertionResultlsIPKcEERS0_RKT_
FN:213,216,_ZN7testing15AssertionResult13AppendMessageERKNS_7MessageE
FNDA:22,_ZN7testing15AssertionResultC2IbEERKT_PNSt9enable_ifIXntsrSt14is_convertibleIS2_S0_E5valueEvE4typeE
FNDA:30,_ZNK7testing15AssertionResultcvbEv
FNDA:0,_ZNK7testing15AssertionResult7messageEv
FNDA:0,_ZNK7testing15AssertionResult15failure_messageEv
FNDA:0,_ZN7testing15AssertionResultlsIA12_cEERS0_RKT_
FNDA:0,_ZN7testing15AssertionResultlsIA3_cEERS0_RKT_
FNDA:0,_ZN7testing15AssertionResultlsIA5_cEERS0_RKT_
FNDA:0,_ZN7testing15AssertionResultlsINSt7__cxx1112basic_stringIcSt11char_traitsIcESaIcEEEEERS0_RKT_
FNDA:0,_ZN7testing15AssertionResultlsIPKcEERS0_RKT_
FNDA:0,_ZN7testing15AssertionResult13AppendMessageERKNS_7MessageE
FNF:10
FNH:2
DA:162,22
DA:168,22
DA:181,30
DA:190,0
DA:191,0
DA:194,0
DA:198,0
DA:199,0
DA:200,0
DA:213,0
DA:214,0
DA:215,0
DA:216,0
LF:13
LH:3
end_of_record
TN:
SF:/home/shasdor/CalcGTestHomeTask/CalcGTest/build/_deps/googletest-src/googletest/include/gtest/gtest-matchers.h
FN:110,110,_ZN7testing19MatchResultListenerD0Ev
FN:110,110,_ZN7testing19MatchResultListenerD2Ev
FN:116,116,_ZN7testing25MatcherDescriberInterfaceD0Ev
FN:116,116,_ZN7testing25MatcherDescriberInterfaceD2Ev
FN:131,135,_ZNK7testing25MatcherDescriberInterface18DescribeNegationToEPSo
FN:185,185,_ZN7testing8internal24DummyMatchResultListenerC2Ev
FN:208,208,_ZN7testing8internal17SharedPayloadBase3RefEv
FN:209,209,_ZN7testing8internal17SharedPayloadBase5UnrefEv
FN:232,235,_ZNK7testing8internal11MatcherBaseIRKNSt7__cxx1112basic_stringIcSt11char_traitsIcESaIcEEEE15MatchAndExplainES9_PNS_19MatchResultListenerE
FN:232,235,_ZNK7testing8internal11MatcherBaseIRKSt5tupleIJRKNSt7__cxx1112basic_stringIcSt11char_traitsIcESaIcEEEEEE15MatchAndExplainESD_PNS_19MatchResultListenerE
FN:232,235,_ZNK7testing8internal11MatcherBaseIRKSt5tupleIJmEEE15MatchAndExplainES5_PNS_19MatchResultListenerE
FN:232,235,_ZNK7testing8internal11MatcherBaseImE15MatchAndExplainERKmPNS_19MatchResultListenerE
FN:238,241,_ZNK7testing8internal11MatcherBaseIRKNSt7__cxx1112basic_stringIcSt11char_traitsIcESaIcEEEE7MatchesES9_
FN:238,241,_ZNK7testing8internal11MatcherBaseIRKSt5tupleIJRKNSt7__cxx1112basic_stringIcSt11char_traitsIcESaIcEEEEEE7MatchesESD_
FN:238,241,_ZNK7testing8internal11MatcherBaseIRKSt5tupleIJmEEE7MatchesES5_
FN:238,241,_ZNK7testing8internal11MatcherBaseImE7MatchesERKm
FN:244,247,_ZNK7testing8internal11MatcherBaseIRKNSt7__cxx1112basic_stringIcSt11char_traitsIcESaIcEEEE10DescribeToEPSo
FN:244,247,_ZNK7testing8internal11MatcherBaseIRKSt5tupleIJRKNSt7__cxx1112basic_stringIcSt11char_traitsIcESaIcEEEEEE10DescribeToEPSo
FN:244,247,_ZNK7testing8internal11MatcherBaseIRKSt5tupleIJmEEE10DescribeToEPSo
FN:244,247,_ZNK7testing8internal11MatcherBaseImE10DescribeToEPSo
FN:250,253,_ZNK7testing8internal11MatcherBaseIRKNSt7__cxx1112basic_stringIcSt11char_traitsIcESaIcEEEE18DescribeNegationToEPSo
FN:250,253,_ZNK7testing8internal11MatcherBaseIRKSt5tupleIJRKNSt7__cxx1112basic_stringIcSt11char_traitsIcESaIcEEEEEE18DescribeNegationToEPSo
FN:250,253,_ZNK7testing8internal11MatcherBaseIRKSt5tupleIJmEEE18DescribeNegationToEPSo
FN:250,253,_ZNK7testing8internal11MatcherBaseImE18DescribeNegationToEPSo
FN:270,270,_ZN7testing8internal11MatcherBaseImEC2Ev
FN:281,283,_ZN7testing8internal11MatcherBaseIRKNSt7__cxx1112basic_stringIcSt11char_traitsIcESaIcEEEEC2IRKNS0_15AnythingMatcherEvEEOT_
FN:281,283,_ZN7testing8internal11MatcherBaseIRKSt5tupleIJRKNSt7__cxx1112basic_stringIcSt11char_traitsIcESaIcEEEEEEC2IRKNS0_15AnythingMatcherEvEEOT_
FN:281,283,_ZN7testing8internal11MatcherBaseIRKSt5tupleIJmEEEC2IRKNS0_15AnythingMatcherEvEEOT_
FN:281,283,_ZN7testing8internal11MatcherBaseImEC2INS0_9EqMatcherImEEvEEOT_
FN:285,288,_ZN7testing8internal11MatcherBaseIRKNSt7__cxx1112basic_stringIcSt11char_traitsIcESaIcEEEEC2ERKSA_
FN:285,288,_ZN7testing8internal11MatcherBaseImEC2ERKS2_
FN:299,302,_ZN7testing8internal11MatcherBaseIRKNSt7__cxx1112basic_stringIcSt11char_traitsIcESaIcEEEEC2EOSA_
FN:299,302,_ZN7testing8internal11MatcherBaseImEC2EOS2_
FN:304,311,_ZN7testing8internal11MatcherBaseImEaSEOS2_
FN:313,313,_ZN7testing8internal11MatcherBaseIRKNSt7__cxx1112basic_stringIcSt11char_traitsIcESaIcEEEED0Ev
FN:313,313,_ZN7testing8internal11MatcherBaseIRKNSt7__cxx1112basic_stringIcSt11char_traitsIcESaIcEEEED2Ev
FN:313,313,_ZN7testing8internal11MatcherBaseIRKSt5tupleIJRKNSt7__cxx1112basic_stringIcSt11char_traitsIcESaIcEEEEEED0Ev
FN:313,313,_ZN7testing8internal11MatcherBaseIRKSt5tupleIJRKNSt7__cxx1112basic_stringIcSt11char_traitsIcESaIcEEEEEED2Ev
FN:313,313,_ZN7testing8internal11MatcherBaseIRKSt5tupleIJmEEED0Ev
FN:313,313,_ZN7testing8internal11MatcherBaseIRKSt5tupleIJmEEED2Ev
FN:313,313,_ZN7testing8internal11MatcherBaseImED0Ev
FN:313,313,_ZN7testing8internal11MatcherBaseImED2Ev
FN:327,329,_ZNK7testing8internal11MatcherBaseIRKNSt7__cxx1112basic_stringIcSt11char_traitsIcESaIcEEEE8IsSharedEv
FN:327,329,_ZNK7testing8internal11MatcherBaseIRKSt5tupleIJRKNSt7__cxx1112basic_stringIcSt11char_traitsIcESaIcEEEEEE8IsSharedEv
FN:327,329,_ZNK7testing8internal11MatcherBaseIRKSt5tupleIJmEEE8IsSharedEv
FN:327,329,_ZNK7testing8internal11MatcherBaseImE8IsSharedEv
FN:333,337,_ZN7testing8internal11MatcherBaseIRKNSt7__cxx1112basic_stringIcSt11char_traitsIcESaIcEEEE19MatchAndExplainImplINSA_11ValuePolicyINS0_15AnythingMatcherELb1EEEEEDTcldtclsrT_3Getfp_E15MatchAndExplainfp0_clptfp1_L_ZNS_19MatchResultListener6streamEvEEEERKSA_S9_PSG_
FN:333,337,_ZN7testing8internal11MatcherBaseIRKSt5tupleIJRKNSt7__cxx1112basic_stringIcSt11char_traitsIcESaIcEEEEEE19MatchAndExplainImplINSE_11ValuePolicyINS0_15AnythingMatcherELb1EEEEEDTcldtclsrT_3Getfp_E15MatchAndExplainfp0_clptfp1_L_ZNS_19MatchResultListener6streamEvEEEERKSE_SD_PSK_
FN:333,337,_ZN7testing8internal11MatcherBaseIRKSt5tupleIJmEEE19MatchAndExplainImplINS6_11ValuePolicyINS0_15AnythingMatcherELb1EEEEEDTcldtclsrT_3Getfp_E15MatchAndExplainfp0_clptfp1_L_ZNS_19MatchResultListener6streamEvEEEERKS6_S5_PSC_
FN:333,337,_ZN7testing8internal11MatcherBaseImE19MatchAndExplainImplINS2_11ValuePolicyINS0_9EqMatcherImEELb1EEEEEDTcldtclsrT_3Getfp_E15MatchAndExplainfp0_clptfp1_L_ZNS_19MatchResultListener6streamEvEEEERKS2_RKmPS9_
FN:347,354,_ZN7testing8internal11MatcherBaseIRKNSt7__cxx1112basic_stringIcSt11char_traitsIcESaIcEEEE12DescribeImplINSA_11ValuePolicyINS0_15AnythingMatcherELb1EEEEEvRKSA_PSob
FN:347,354,_ZN7testing8internal11MatcherBaseIRKSt5tupleIJRKNSt7__cxx1112basic_stringIcSt11char_traitsIcESaIcEEEEEE12DescribeImplINSE_11ValuePolicyINS0_15AnythingMatcherELb1EEEEEvRKSE_PSob
FN:347,354,_ZN7testing8internal11MatcherBaseIRKSt5tupleIJmEEE12DescribeImplINS6_11ValuePolicyINS0_15AnythingMatcherELb1EEEEEvRKS6_PSob
FN:347,354,_ZN7testing8internal11MatcherBaseImE12DescribeImplINS2_11ValuePolicyINS0_9EqMatcherImEELb1EEEEEvRKS2_PSob
FN:357,370,_ZN7testing8internal11MatcherBaseIRKNSt7__cxx1112basic_stringIcSt11char_traitsIcESaIcEEEE16GetDescriberImplINSA_11ValuePolicyINS0_15AnythingMatcherELb1EEEEEPKNS_25MatcherDescriberInterfaceERKSA_
FN:357,370,_ZN7testing8internal11MatcherBaseIRKSt5tupleIJRKNSt7__cxx1112basic_stringIcSt11char_traitsIcESaIcEEEEEE16GetDescriberImplINSE_11ValuePolicyINS0_15AnythingMatcherELb1EEEEEPKNS_25MatcherDescriberInterfaceERKSE_
FN:357,370,_ZN7testing8internal11MatcherBaseIRKSt5tupleIJmEEE16GetDescriberImplINS6_11ValuePolicyINS0_15AnythingMatcherELb1EEEEEPKNS_25MatcherDescriberInterfaceERKS6_
FN:357,370,_ZN7testing8internal11MatcherBaseImE16GetDescriberImplINS2_11ValuePolicyINS0_9EqMatcherImEELb1EEEEEPKNS_25MatcherDescriberInterfaceERKS2_
FN:373,378,_ZN7testing8internal11MatcherBaseIRKNSt7__cxx1112basic_stringIcSt11char_traitsIcESaIcEEEE9GetVTableINSA_11ValuePolicyINS0_15AnythingMatcherELb1EEEEEPKNSA_6VTableEv
FN:373,378,_ZN7testing8internal11MatcherBaseIRKSt5tupleIJRKNSt7__cxx1112basic_stringIcSt11char_traitsIcESaIcEEEEEE9GetVTableINSE_11ValuePolicyINS0_15AnythingMatcherELb1EEEEEPKNSE_6VTableEv
FN:373,378,_ZN7testing8internal11MatcherBaseIRKSt5tupleIJmEEE9GetVTableINS6_11ValuePolicyINS0_15AnythingMatcherELb1EEEEEPKNS6_6VTableEv
FN:373,378,_ZN7testing8internal11MatcherBaseImE9GetVTableINS2_11ValuePolicyINS0_9EqMatcherImEELb1EEEEEPKNS2_6VTableEv
FN:389,393,_ZN7testing8internal11MatcherBaseIRKNSt7__cxx1112basic_stringIcSt11char_traitsIcESaIcEEEE7DestroyEv
FN:389,393,_ZN7testing8internal11MatcherBaseIRKSt5tupleIJRKNSt7__cxx1112basic_stringIcSt11char_traitsIcESaIcEEEEEE7DestroyEv
FN:389,393,_ZN7testing8internal11MatcherBaseIRKSt5tupleIJmEEE7DestroyEv
FN:389,393,_ZN7testing8internal11MatcherBaseImE7DestroyEv
FN:404,410,_ZN7testing8internal11MatcherBaseIRKNSt7__cxx1112basic_stringIcSt11char_traitsIcESaIcEEEE11ValuePolicyINS0_15AnythingMatcherELb1EE3GetERKSA_
FN:404,410,_ZN7testing8internal11MatcherBaseIRKSt5tupleIJRKNSt7__cxx1112basic_stringIcSt11char_traitsIcESaIcEEEEEE11ValuePolicyINS0_15AnythingMatcherELb1EE3GetERKSE_
FN:404,410,_ZN7testing8internal11MatcherBaseIRKSt5tupleIJmEEE11ValuePolicyINS0_15AnythingMatcherELb1EE3GetERKS6_
FN:404,410,_ZN7testing8internal11MatcherBaseImE11ValuePolicyINS0_9EqMatcherImEELb1EE3GetERKS2_
FN:411,413,_ZN7testing8internal11MatcherBaseIRKNSt7__cxx1112basic_stringIcSt11char_traitsIcESaIcEEEE11ValuePolicyINS0_15AnythingMatcherELb1EE4InitERSA_SC_
FN:411,413,_ZN7testing8internal11MatcherBaseIRKSt5tupleIJRKNSt7__cxx1112basic_stringIcSt11char_traitsIcESaIcEEEEEE11ValuePolicyINS0_15AnythingMatcherELb1EE4InitERSE_SG_
FN:411,413,_ZN7testing8internal11MatcherBaseIRKSt5tupleIJmEEE11ValuePolicyINS0_15AnythingMatcherELb1EE4InitERS6_S8_
FN:411,413,_ZN7testing8internal11MatcherBaseImE11ValuePolicyINS0_9EqMatcherImEELb1EE4InitERS2_S5_
FN:445,450,_ZN7testing8internal11MatcherBaseIRKNSt7__cxx1112basic_stringIcSt11char_traitsIcESaIcEEEE4InitIRKNS0_15AnythingMatcherEEEvOT_
FN:445,450,_ZN7testing8internal11MatcherBaseIRKSt5tupleIJRKNSt7__cxx1112basic_stringIcSt11char_traitsIcESaIcEEEEEE4InitIRKNS0_15AnythingMatcherEEEvOT_
FN:445,450,_ZN7testing8internal11MatcherBaseIRKSt5tupleIJmEEE4InitIRKNS0_15AnythingMatcherEEEvOT_
FN:445,450,_ZN7testing8internal11MatcherBaseImE4InitINS0_9EqMatcherImEEEEvOT_
FN:483,483,_ZN7testing7MatcherIRKSt5tupleIJRKNSt7__cxx1112basic_stringIcSt11char_traitsIcESaIcEEEEEEC2IRKNS_8internal15AnythingMatcherEvEEOT_
FN:483,483,_ZN7testing7MatcherIRKSt5tupleIJmEEEC2IRKNS_8internal15AnythingMatcherEvEEOT_
FN:483,483,_ZN7testing7MatcherImEC2INS_8internal9EqMatcherImEEvEEOT_
FN:504,505,_ZN7testing7MatcherIRKNSt7__cxx1112basic_stringIcSt11char_traitsIcESaIcEEEEC2IRKNS_8internal15AnythingMatcherEvEEOT_
FN:694,694,_ZN7testing8internal14ComparisonBaseINS0_9EqMatcherImEEmSt8equal_toIvEEC2ERKm
FN:699,701,_ZNK7testing8internal14ComparisonBaseINS0_9EqMatcherImEEmSt8equal_toIvEE15MatchAndExplainImEEbRKT_PSo
FN:702,705,_ZNK7testing8internal14ComparisonBaseINS0_9EqMatcherImEEmSt8equal_toIvEE10DescribeToEPSo
FN:706,709,_ZNK7testing8internal14ComparisonBaseINS0_9EqMatcherImEEmSt8equal_toIvEE18DescribeNegationToEPSo
FN:713,715,_ZN7testing8internal14ComparisonBaseINS0_9EqMatcherImEEmSt8equal_toIvEE6UnwrapImEERKT_SA_
FN:727,728,_ZN7testing8internal9EqMatcherImEC2ERKm
FN:729,729,_ZN7testing8internal9EqMatcherImE4DescEv
FN:730,730,_ZN7testing8internal9EqMatcherImE11NegatedDescEv
FN:83,83,_ZN7testing19MatchResultListenerC2EPSo
FN:891,893,_ZN7testing2EqImEENS_8internal9EqMatcherIT_EES3_
FN:898,900,_ZN7testing7MatcherImEC2Em
FN:95,95,_ZN7testing19MatchResultListener6streamEv
FNDA:0,_ZN7testing19MatchResultListenerD0Ev
FNDA:12,_ZN7testing19MatchResultListenerD2Ev
FNDA:0,_ZN7testing25MatcherDescriberInterfaceD0Ev
FNDA:41,_ZN7testing25MatcherDescriberInterfaceD2Ev
FNDA:0,_ZNK7testing25MatcherDescriberInterface18DescribeNegationToEPSo
FNDA:12,_ZN7testing8internal24DummyMatchResultListenerC2Ev
FNDA:12,_ZN7testing8internal17SharedPayloadBase3RefEv
FNDA:16,_ZN7testing8internal17SharedPayloadBase5UnrefEv
FNDA:5,_ZNK7testing8internal11MatcherBaseIRKNSt7__cxx1112basic_stringIcSt11char_traitsIcESaIcEEEE15MatchAndExplainES9_PNS_19MatchResultListenerE
FNDA:5,_ZNK7testing8internal11MatcherBaseIRKSt5tupleIJRKNSt7__cxx1112basic_stringIcSt11char_traitsIcESaIcEEEEEE15MatchAndExplainESD_PNS_19MatchResultListenerE
FNDA:1,_ZNK7testing8internal11MatcherBaseIRKSt5tupleIJmEEE15MatchAndExplainES5_PNS_19MatchResultListenerE
FNDA:1,_ZNK7testing8internal11MatcherBaseImE15MatchAndExplainERKmPNS_19MatchResultListenerE
FNDA:5,_ZNK7testing8internal11MatcherBaseIRKNSt7__cxx1112basic_stringIcSt11char_traitsIcESaIcEEEE7MatchesES9_
FNDA:5,_ZNK7testing8internal11MatcherBaseIRKSt5tupleIJRKNSt7__cxx1112basic_stringIcSt11char_traitsIcESaIcEEEEEE7MatchesESD_
FNDA:1,_ZNK7testing8internal11MatcherBaseIRKSt5tupleIJmEEE7MatchesES5_
FNDA:1,_ZNK7testing8internal11MatcherBaseImE7MatchesERKm
FNDA:0,_ZNK7testing8internal11MatcherBaseIRKNSt7__cxx1112basic_stringIcSt11char_traitsIcESaIcEEEE10DescribeToEPSo
FNDA:0,_ZNK7testing8internal11MatcherBaseIRKSt5tupleIJRKNSt7__cxx1112basic_stringIcSt11char_traitsIcESaIcEEEEEE10DescribeToEPSo
FNDA:0,_ZNK7testing8internal11MatcherBaseIRKSt5tupleIJmEEE10DescribeToEPSo
FNDA:0,_ZNK7testing8internal11MatcherBaseImE10DescribeToEPSo
FNDA:0,_ZNK7testing8internal11MatcherBaseIRKNSt7__cxx1112basic_stringIcSt11char_traitsIcESaIcEEEE18DescribeNegationToEPSo
FNDA:0,_ZNK7testing8internal11MatcherBaseIRKSt5tupleIJRKNSt7__cxx1112basic_stringIcSt11char_traitsIcESaIcEEEEEE18DescribeNegationToEPSo
FNDA:0,_ZNK7testing8internal11MatcherBaseIRKSt5tupleIJmEEE18DescribeNegationToEPSo
FNDA:0,_ZNK7testing8internal11MatcherBaseImE18DescribeNegationToEPSo
FNDA:1,_ZN7testing8internal11MatcherBaseImEC2Ev
FNDA:1,_ZN7testing8internal11MatcherBaseIRKNSt7__cxx1112basic_stringIcSt11char_traitsIcESaIcEEEEC2IRKNS0_15AnythingMatcherEvEEOT_
FNDA:5,_ZN7testing8internal11MatcherBaseIRKSt5tupleIJRKNSt7__cxx1112basic_stringIcSt11char_traitsIcESaIcEEEEEEC2IRKNS0_15AnythingMatcherEvEEOT_
FNDA:1,_ZN7testing8internal11MatcherBaseIRKSt5tupleIJmEEEC2IRKNS0_15AnythingMatcherEvEEOT_
FNDA:1,_ZN7testing8internal11MatcherBaseImEC2INS0_9EqMatcherImEEvEEOT_
FNDA:15,_ZN7testing8internal11MatcherBaseIRKNSt7__cxx1112basic_stringIcSt11char_traitsIcESaIcEEEEC2ERKSA_
FNDA:3,_ZN7testing8internal11MatcherBaseImEC2ERKS2_
FNDA:5,_ZN7testing8internal11MatcherBaseIRKNSt7__cxx1112basic_stringIcSt11char_traitsIcESaIcEEEEC2EOSA_
FNDA:1,_ZN7testing8internal11MatcherBaseImEC2EOS2_
FNDA:1,_ZN7testing8internal11MatcherBaseImEaSEOS2_
FNDA:0,_ZN7testing8internal11MatcherBaseIRKNSt7__cxx1112basic_stringIcSt11char_traitsIcESaIcEEEED0Ev
FNDA:29,_ZN7testing8internal11MatcherBaseIRKNSt7__cxx1112basic_stringIcSt11char_traitsIcESaIcEEEED2Ev
FNDA:0,_ZN7testing8internal11MatcherBaseIRKSt5tupleIJRKNSt7__cxx1112basic_stringIcSt11char_traitsIcESaIcEEEEEED0Ev
FNDA:5,_ZN7testing8internal11MatcherBaseIRKSt5tupleIJRKNSt7__cxx1112basic_stringIcSt11char_traitsIcESaIcEEEEEED2Ev
FNDA:0,_ZN7testing8internal11MatcherBaseIRKSt5tupleIJmEEED0Ev
FNDA:1,_ZN7testing8internal11MatcherBaseIRKSt5tupleIJmEEED2Ev
FNDA:0,_ZN7testing8internal11MatcherBaseImED0Ev
FNDA:6,_ZN7testing8internal11MatcherBaseImED2Ev
FNDA:48,_ZNK7testing8internal11MatcherBaseIRKNSt7__cxx1112basic_stringIcSt11char_traitsIcESaIcEEEE8IsSharedEv
FNDA:5,_ZNK7testing8internal11MatcherBaseIRKSt5tupleIJRKNSt7__cxx1112basic_stringIcSt11char_traitsIcESaIcEEEEEE8IsSharedEv
FNDA:1,_ZNK7testing8internal11MatcherBaseIRKSt5tupleIJmEEE8IsSharedEv
FNDA:10,_ZNK7testing8internal11MatcherBaseImE8IsSharedEv
FNDA:1,_ZN7testing8internal11MatcherBaseIRKNSt7__cxx1112basic_stringIcSt11char_traitsIcESaIcEEEE19MatchAndExplainImplINSA_11ValuePolicyINS0_15AnythingMatcherELb1EEEEEDTcldtclsrT_3Getfp_E15MatchAndExplainfp0_clptfp1_L_ZNS_19MatchResultListener6streamEvEEEERKSA_S9_PSG_
FNDA:5,_ZN7testing8internal11MatcherBaseIRKSt5tupleIJRKNSt7__cxx1112basic_stringIcSt11char_traitsIcESaIcEEEEEE19MatchAndExplainImplINSE_11ValuePolicyINS0_15AnythingMatcherELb1EEEEEDTcldtclsrT_3Getfp_E15MatchAndExplainfp0_clptfp1_L_ZNS_19MatchResultListener6streamEvEEEERKSE_SD_PSK_
FNDA:1,_ZN7testing8internal11MatcherBaseIRKSt5tupleIJmEEE19MatchAndExplainImplINS6_11ValuePolicyINS0_15AnythingMatcherELb1EEEEEDTcldtclsrT_3Getfp_E15MatchAndExplainfp0_clptfp1_L_ZNS_19MatchResultListener6streamEvEEEERKS6_S5_PSC_
FNDA:1,_ZN7testing8internal11MatcherBaseImE19MatchAndExplainImplINS2_11ValuePolicyINS0_9EqMatcherImEELb1EEEEEDTcldtclsrT_3Getfp_E15MatchAndExplainfp0_clptfp1_L_ZNS_19MatchResultListener6streamEvEEEERKS2_RKmPS9_
FNDA:0,_ZN7testing8internal11MatcherBaseIRKNSt7__cxx1112basic_stringIcSt11char_traitsIcESaIcEEEE12DescribeImplINSA_11ValuePolicyINS0_15AnythingMatcherELb1EEEEEvRKSA_PSob
FNDA:0,_ZN7testing8internal11MatcherBaseIRKSt5tupleIJRKNSt7__cxx1112basic_stringIcSt11char_traitsIcESaIcEEEEEE12DescribeImplINSE_11ValuePolicyINS0_15AnythingMatcherELb1EEEEEvRKSE_PSob
FNDA:0,_ZN7testing8internal11MatcherBaseIRKSt5tupleIJmEEE12DescribeImplINS6_11ValuePolicyINS0_15AnythingMatcherELb1EEEEEvRKS6_PSob
FNDA:0,_ZN7testing8internal11MatcherBaseImE12DescribeImplINS2_11ValuePolicyINS0_9EqMatcherImEELb1EEEEEvRKS2_PSob
FNDA:0,_ZN7testing8internal11MatcherBaseIRKNSt7__cxx1112basic_stringIcSt11char_traitsIcESaIcEEEE16GetDescriberImplINSA_11ValuePolicyINS0_15AnythingMatcherELb1EEEEEPKNS_25MatcherDescriberInterfaceERKSA_
FNDA:0,_ZN7testing8internal11MatcherBaseIRKSt5tupleIJRKNSt7__cxx1112basic_stringIcSt11char_traitsIcESaIcEEEEEE16GetDescriberImplINSE_11ValuePolicyINS0_15AnythingMatcherELb1EEEEEPKNS_25MatcherDescriberInterfaceERKSE_
FNDA:0,_ZN7testing8internal11MatcherBaseIRKSt5tupleIJmEEE16GetDescriberImplINS6_11ValuePolicyINS0_15AnythingMatcherELb1EEEEEPKNS_25MatcherDescriberInterfaceERKS6_
FNDA:0,_ZN7testing8internal11MatcherBaseImE16GetDescriberImplINS2_11ValuePolicyINS0_9EqMatcherImEELb1EEEEEPKNS_25MatcherDescriberInterfaceERKS2_
FNDA:1,_ZN7testing8internal11MatcherBaseIRKNSt7__cxx1112basic_stringIcSt11char_traitsIcESaIcEEEE9GetVTableINSA_11ValuePolicyINS0_15AnythingMatcherELb1EEEEEPKNSA_6VTableEv
FNDA:5,_ZN7testing8internal11MatcherBaseIRKSt5tupleIJRKNSt7__cxx1112basic_stringIcSt11char_traitsIcESaIcEEEEEE9GetVTableINSE_11ValuePolicyINS0_15AnythingMatcherELb1EEEEEPKNSE_6VTableEv
FNDA:1,_ZN7testing8internal11MatcherBaseIRKSt5tupleIJmEEE9GetVTableINS6_11ValuePolicyINS0_15AnythingMatcherELb1EEEEEPKNS6_6VTableEv
FNDA:1,_ZN7testing8internal11MatcherBaseImE9GetVTableINS2_11ValuePolicyINS0_9EqMatcherImEELb1EEEEEPKNS2_6VTableEv
FNDA:33,_ZN7testing8internal11MatcherBaseIRKNSt7__cxx1112basic_stringIcSt11char_traitsIcESaIcEEEE7DestroyEv
FNDA:5,_ZN7testing8internal11MatcherBaseIRKSt5tupleIJRKNSt7__cxx1112basic_stringIcSt11char_traitsIcESaIcEEEEEE7DestroyEv
FNDA:1,_ZN7testing8internal11MatcherBaseIRKSt5tupleIJmEEE7DestroyEv
FNDA:7,_ZN7testing8internal11MatcherBaseImE7DestroyEv
FNDA:1,_ZN7testing8internal11MatcherBaseIRKNSt7__cxx1112basic_stringIcSt11char_traitsIcESaIcEEEE11ValuePolicyINS0_15AnythingMatcherELb1EE3GetERKSA_
FNDA:5,_ZN7testing8internal11MatcherBaseIRKSt5tupleIJRKNSt7__cxx1112basic_stringIcSt11char_traitsIcESaIcEEEEEE11ValuePolicyINS0_15AnythingMatcherELb1EE3GetERKSE_
FNDA:1,_ZN7testing8internal11MatcherBaseIRKSt5tupleIJmEEE11ValuePolicyINS0_15AnythingMatcherELb1EE3GetERKS6_
FNDA:1,_ZN7testing8internal11MatcherBaseImE11ValuePolicyINS0_9EqMatcherImEELb1EE3GetERKS2_
FNDA:1,_ZN7testing8internal11MatcherBaseIRKNSt7__cxx1112basic_stringIcSt11char_traitsIcESaIcEEEE11ValuePolicyINS0_15AnythingMatcherELb1EE4InitERSA_SC_
FNDA:5,_ZN7testing8internal11MatcherBaseIRKSt5tupleIJRKNSt7__cxx1112basic_stringIcSt11char_traitsIcESaIcEEEEEE11ValuePolicyINS0_15AnythingMatcherELb1EE4InitERSE_SG_
FNDA:1,_ZN7testing8internal11MatcherBaseIRKSt5tupleIJmEEE11ValuePolicyINS0_15AnythingMatcherELb1EE4InitERS6_S8_
FNDA:1,_ZN7testing8internal11MatcherBaseImE11ValuePolicyINS0_9EqMatcherImEELb1EE4InitERS2_S5_
FNDA:1,_ZN7testing8internal11MatcherBaseIRKNSt7__cxx1112basic_stringIcSt11char_traitsIcESaIcEEEE4InitIRKNS0_15AnythingMatcherEEEvOT_
FNDA:5,_ZN7testing8internal11MatcherBaseIRKSt5tupleIJRKNSt7__cxx1112basic_stringIcSt11char_traitsIcESaIcEEEEEE4InitIRKNS0_15AnythingMatcherEEEvOT_
FNDA:1,_ZN7testing8internal11MatcherBaseIRKSt5tupleIJmEEE4InitIRKNS0_15AnythingMatcherEEEvOT_
FNDA:1,_ZN7testing8internal11MatcherBaseImE4InitINS0_9EqMatcherImEEEEvOT_
FNDA:5,_ZN7testing7MatcherIRKSt5tupleIJRKNSt7__cxx1112basic_stringIcSt11char_traitsIcESaIcEEEEEEC2IRKNS_8internal15AnythingMatcherEvEEOT_
FNDA:1,_ZN7testing7MatcherIRKSt5tupleIJmEEEC2IRKNS_8internal15AnythingMatcherEvEEOT_
FNDA:1,_ZN7testing7MatcherImEC2INS_8internal9EqMatcherImEEvEEOT_
FNDA:1,_ZN7testing7MatcherIRKNSt7__cxx1112basic_stringIcSt11char_traitsIcESaIcEEEEC2IRKNS_8internal15AnythingMatcherEvEEOT_
FNDA:1,_ZN7testing8internal14ComparisonBaseINS0_9EqMatcherImEEmSt8equal_toIvEEC2ERKm
FNDA:1,_ZNK7testing8internal14ComparisonBaseINS0_9EqMatcherImEEmSt8equal_toIvEE15MatchAndExplainImEEbRKT_PSo
FNDA:0,_ZNK7testing8internal14ComparisonBaseINS0_9EqMatcherImEEmSt8equal_toIvEE10DescribeToEPSo
FNDA:0,_ZNK7testing8internal14ComparisonBaseINS0_9EqMatcherImEEmSt8equal_toIvEE18DescribeNegationToEPSo
FNDA:1,_ZN7testing8internal14ComparisonBaseINS0_9EqMatcherImEEmSt8equal_toIvEE6UnwrapImEERKT_SA_
FNDA:1,_ZN7testing8internal9EqMatcherImEC2ERKm
FNDA:0,_ZN7testing8internal9EqMatcherImE4DescEv
FNDA:0,_ZN7testing8internal9EqMatcherImE11NegatedDescEv
FNDA:12,_ZN7testing19MatchResultListenerC2EPSo
FNDA:1,_ZN7testing2EqImEENS_8internal9EqMatcherIT_EES3_
FNDA:1,_ZN7testing7MatcherImEC2Em
FNDA:12,_ZN7testing19MatchResultListener6streamEv
FNF:94
FNH:67
DA:83,12
DA:95,12
DA:110,12
DA:116,41
DA:131,0
DA:132,0
DA:133,0
DA:134,0
DA:135,0
DA:185,12
DA:208,12
DA:209,32
DA:232,12
DA:233,12
DA:234,12
DA:238,12
DA:239,12
DA:240,24
DA:241,12
DA:244,0
DA:245,0
DA:246,0
DA:247,0
DA:250,0
DA:251,0
DA:252,0
DA:253,0
DA:270,1
DA:281,8
DA:282,8
DA:283,8
DA:285,18
DA:286,18
DA:287,18
DA:288,18
DA:299,6
DA:300,6
DA:301,6
DA:302,6
DA:304,1
DA:305,1
DA:306,1
DA:307,1
DA:308,1
DA:309,1
DA:310,1
DA:313,41
DA:327,64
DA:328,64
DA:333,8
DA:336,8
DA:347,0
DA:349,0
DA:350,0
DA:352,0
DA:354,0
DA:357,0
DA:369,0
DA:373,8
DA:377,8
DA:389,46
DA:390,46
DA:391,4
DA:393,46
DA:404,8
DA:407,8
DA:409,8
DA:411,8
DA:412,8
DA:413,8
DA:445,8
DA:448,8
DA:449,8
DA:450,8
DA:483,7
DA:504,1
DA:505,1
DA:694,1
DA:699,1
DA:700,1
DA:702,0
DA:703,0
DA:704,0
DA:705,0
DA:706,0
DA:707,0
DA:708,0
DA:709,0
DA:713,1
DA:714,1
DA:727,1
DA:728,1
DA:729,0
DA:730,0
DA:891,1
DA:892,1
DA:898,1
DA:899,1
DA:900,1
LF:99
LH:69
end_of_record
TN:
SF:/home/shasdor/CalcGTestHomeTask/CalcGTest/build/_deps/googletest-src/googletest/include/gtest/gtest-message.h
FN:132,150,_ZN7testing7MessagelsIA12_cEERS0_RKT_
FN:132,150,_ZN7testing7MessagelsIA3_cEERS0_RKT_
FN:132,150,_ZN7testing7MessagelsIA57_cEERS0_RKT_
FN:132,150,_ZN7testing7MessagelsIA5_cEERS0_RKT_
FN:132,150,_ZN7testing7MessagelsINSt7__cxx1112basic_stringIcSt11char_traitsIcESaIcEEEEERS0_RKT_
FN:181,188,_ZN7testing7MessagelsIKcEERS0_RKPT_
FNDA:0,_ZN7testing7MessagelsIA12_cEERS0_RKT_
FNDA:0,_ZN7testing7MessagelsIA3_cEERS0_RKT_
FNDA:0,_ZN7testing7MessagelsIA57_cEERS0_RKT_
FNDA:0,_ZN7testing7MessagelsIA5_cEERS0_RKT_
FNDA:0,_ZN7testing7MessagelsINSt7__cxx1112basic_stringIcSt11char_traitsIcESaIcEEEEERS0_RKT_
FNDA:414,_ZN7testing7MessagelsIKcEERS0_RKPT_
FNF:6
FNH:1
DA:132,0
DA:148,0
DA:149,0
DA:181,414
DA:182,414
DA:183,0
DA:185,414
DA:187,414
LF:8
LH:4
end_of_record
TN:
SF:/home/shasdor/CalcGTestHomeTask/CalcGTest/build/_deps/googletest-src/googletest/include/gtest/gtest-printers.h
FN:1051,1058,_ZN7testing8internal16UniversalPrinterIRKNSt7__cxx1112basic_stringIcSt11char_traitsIcESaIcEEEE5PrintES9_PSo
FN:1070,1072,_ZN7testing8internal21UniversalTersePrinterINSt7__cxx1112basic_stringIcSt11char_traitsIcESaIcEEEE5PrintERKS7_PSo
FN:1070,1072,_ZN7testing8internal21UniversalTersePrinterIdE5PrintERKdPSo
FN:1070,1072,_ZN7testing8internal21UniversalTersePrinterIiE5PrintERKiPSo
FN:1070,1072,_ZN7testing8internal21UniversalTersePrinterImE5PrintERKmPSo
FN:1098,1104,_ZN7testing8internal21UniversalTersePrinterIPKcE5PrintES3_PSo
FN:1189,1194,_ZN7testing8internal14UniversalPrintINSt7__cxx1112basic_stringIcSt11char_traitsIcESaIcEEEEEvRKT_PSo
FN:1189,1194,_ZN7testing8internal14UniversalPrintISt5tupleIJRKNSt7__cxx1112basic_stringIcSt11char_traitsIcESaIcEEEEEEEvRKT_PSo
FN:1189,1194,_ZN7testing8internal14UniversalPrintISt5tupleIJmEEEEvRKT_PSo
FN:1189,1194,_ZN7testing8internal14UniversalPrintIdEEvRKT_PSo
FN:1189,1194,_ZN7testing8internal14UniversalPrintIiEEvRKT_PSo
FN:1189,1194,_ZN7testing8internal14UniversalPrintImEEvRKT_PSo
FN:1229,1233,_ZN7testing13PrintToStringINSt7__cxx1112basic_stringIcSt11char_traitsIcESaIcEEEEES6_RKT_
FN:1229,1233,_ZN7testing13PrintToStringIPKcEENSt7__cxx1112basic_stringIcSt11char_traitsIcESaIcEEERKT_
FN:1229,1233,_ZN7testing13PrintToStringIdEENSt7__cxx1112basic_stringIcSt11char_traitsIcESaIcEEERKT_
FN:1229,1233,_ZN7testing13PrintToStringIiEENSt7__cxx1112basic_stringIcSt11char_traitsIcESaIcEEERKT_
FN:1229,1233,_ZN7testing13PrintToStringImEENSt7__cxx1112basic_stringIcSt11char_traitsIcESaIcEEERKT_
FN:172,195,_ZN7testing8internal16ContainerPrinter10PrintValueISt6vectorINSt7__cxx1112basic_stringIcSt11char_traitsIcESaIcEEESaIS9_EEvEEvRKT_PSo
FN:252,257,_ZN7testing8internal52internal_stream_operator_without_lexical_name_lookup13StreamPrinter10PrintValueIivEEDTcvvlsdefp0_fp_ERKT_PSo
FN:252,257,_ZN7testing8internal52internal_stream_operator_without_lexical_name_lookup13StreamPrinter10PrintValueImvEEDTcvvlsdefp0_fp_ERKT_PSo
FN:356,367,_ZN7testing8internal17PrintWithFallbackISt6vectorINSt7__cxx1112basic_stringIcSt11char_traitsIcESaIcEEESaIS8_EEEEvRKT_PSo
FN:356,367,_ZN7testing8internal17PrintWithFallbackIiEEvRKT_PSo
FN:356,367,_ZN7testing8internal17PrintWithFallbackImEEvRKT_PSo
FN:387,389,_ZN7testing8internal19FormatForComparisonINSt7__cxx1112basic_stringIcSt11char_traitsIcESaIcEEEA10_cE6FormatERKS7_
FN:387,389,_ZN7testing8internal19FormatForComparisonINSt7__cxx1112basic_stringIcSt11char_traitsIcESaIcEEEA11_cE6FormatERKS7_
FN:387,389,_ZN7testing8internal19FormatForComparisonINSt7__cxx1112basic_stringIcSt11char_traitsIcESaIcEEEA4_cE6FormatERKS7_
FN:387,389,_ZN7testing8internal19FormatForComparisonINSt7__cxx1112basic_stringIcSt11char_traitsIcESaIcEEEA8_cE6FormatERKS7_
FN:387,389,_ZN7testing8internal19FormatForComparisonIddE6FormatB5cxx11ERKd
FN:387,389,_ZN7testing8internal19FormatForComparisonIdiE6FormatB5cxx11ERKd
FN:387,389,_ZN7testing8internal19FormatForComparisonIidE6FormatB5cxx11ERKi
FN:387,389,_ZN7testing8internal19FormatForComparisonIimE6FormatB5cxx11ERKi
FN:387,389,_ZN7testing8internal19FormatForComparisonImiE6FormatB5cxx11ERKm
FN:396,398,_ZN7testing8internal19FormatForComparisonIA10_cNSt7__cxx1112basic_stringIcSt11char_traitsIcESaIcEEEE6FormatEPKc
FN:396,398,_ZN7testing8internal19FormatForComparisonIA11_cNSt7__cxx1112basic_stringIcSt11char_traitsIcESaIcEEEE6FormatEPKc
FN:396,398,_ZN7testing8internal19FormatForComparisonIA4_cNSt7__cxx1112basic_stringIcSt11char_traitsIcESaIcEEEE6FormatEPKc
FN:396,398,_ZN7testing8internal19FormatForComparisonIA8_cNSt7__cxx1112basic_stringIcSt11char_traitsIcESaIcEEEE6FormatEPKc
FN:441,441,_ZN7testing8internal19FormatForComparisonIPKcNSt7__cxx1112basic_stringIcSt11char_traitsIcESaIcEEEE6FormatES3_
FN:467,470,_ZN7testing8internal33FormatForComparisonFailureMessageIA10_cNSt7__cxx1112basic_stringIcSt11char_traitsIcESaIcEEEEES8_RKT_RKT0_
FN:467,470,_ZN7testing8internal33FormatForComparisonFailureMessageIA11_cNSt7__cxx1112basic_stringIcSt11char_traitsIcESaIcEEEEES8_RKT_RKT0_
FN:467,470,_ZN7testing8internal33FormatForComparisonFailureMessageIA4_cNSt7__cxx1112basic_stringIcSt11char_traitsIcESaIcEEEEES8_RKT_RKT0_
FN:467,470,_ZN7testing8internal33FormatForComparisonFailureMessageIA8_cNSt7__cxx1112basic_stringIcSt11char_traitsIcESaIcEEEEES8_RKT_RKT0_
FN:467,470,_ZN7testing8internal33FormatForComparisonFailureMessageINSt7__cxx1112basic_stringIcSt11char_traitsIcESaIcEEEA10_cEES7_RKT_RKT0_
FN:467,470,_ZN7testing8internal33FormatForComparisonFailureMessageINSt7__cxx1112basic_stringIcSt11char_traitsIcESaIcEEEA11_cEES7_RKT_RKT0_
FN:467,470,_ZN7testing8internal33FormatForComparisonFailureMessageINSt7__cxx1112basic_stringIcSt11char_traitsIcESaIcEEEA4_cEES7_RKT_RKT0_
FN:467,470,_ZN7testing8internal33FormatForComparisonFailureMessageINSt7__cxx1112basic_stringIcSt11char_traitsIcESaIcEEEA8_cEES7_RKT_RKT0_
FN:467,470,_ZN7testing8internal33FormatForComparisonFailureMessageIddEENSt7__cxx1112basic_stringIcSt11char_traitsIcESaIcEEERKT_RKT0_
FN:467,470,_ZN7testing8internal33FormatForComparisonFailureMessageIdiEENSt7__cxx1112basic_stringIcSt11char_traitsIcESaIcEEERKT_RKT0_
FN:467,470,_ZN7testing8internal33FormatForComparisonFailureMessageIidEENSt7__cxx1112basic_stringIcSt11char_traitsIcESaIcEEERKT_RKT0_
FN:467,470,_ZN7testing8internal33FormatForComparisonFailureMessageIimEENSt7__cxx1112basic_stringIcSt11char_traitsIcESaIcEEERKT_RKT0_
FN:467,470,_ZN7testing8internal33FormatForComparisonFailureMessageImiEENSt7__cxx1112basic_stringIcSt11char_traitsIcESaIcEEERKT_RKT0_
FN:494,496,_ZN7testing8internal7PrintToISt6vectorINSt7__cxx1112basic_stringIcSt11char_traitsIcESaIcEEESaIS8_EEEEvRKT_PSo
FN:494,496,_ZN7testing8internal7PrintToIiEEvRKT_PSo
FN:494,496,_ZN7testing8internal7PrintToImEEvRKT_PSo
FN:563,625,_ZN7testing8internal21AppropriateResolutionIdEEiT_
FN:634,639,_ZN7testing8internal7PrintToEdPSo
FN:708,710,_ZN7testing8internal7PrintToERKNSt7__cxx1112basic_stringIcSt11char_traitsIcESaIcEEEPSo
FN:854,855,_ZN7testing8internal12PrintTupleToISt5tupleIJRKNSt7__cxx1112basic_stringIcSt11char_traitsIcESaIcEEEEEEEvRKT_St17integral_constantImLm0EEPSo
FN:854,855,_ZN7testing8internal12PrintTupleToISt5tupleIJmEEEEvRKT_St17integral_constantImLm0EEPSo
FN:858,868,_ZN7testing8internal12PrintTupleToISt5tupleIJRKNSt7__cxx1112basic_stringIcSt11char_traitsIcESaIcEEEEELm1EEEvRKT_St17integral_constantImXT0_EEPSo
FN:858,868,_ZN7testing8internal12PrintTupleToISt5tupleIJmEELm1EEEvRKT_St17integral_constantImXT0_EEPSo
FN:871,875,_ZN7testing8internal7PrintToIJRKNSt7__cxx1112basic_stringIcSt11char_traitsIcESaIcEEEEEEvRKSt5tupleIJDpT_EEPSo
FN:871,875,_ZN7testing8internal7PrintToIJmEEEvRKSt5tupleIJDpT_EEPSo
FN:901,911,_ZN7testing8internal16UniversalPrinterINSt7__cxx1112basic_stringIcSt11char_traitsIcESaIcEEEE5PrintERKS7_PSo
FN:901,911,_ZN7testing8internal16UniversalPrinterISt5tupleIJRKNSt7__cxx1112basic_stringIcSt11char_traitsIcESaIcEEEEEE5PrintERKSB_PSo
FN:901,911,_ZN7testing8internal16UniversalPrinterISt5tupleIJmEEE5PrintERKS3_PSo
FN:901,911,_ZN7testing8internal16UniversalPrinterISt6vectorINSt7__cxx1112basic_stringIcSt11char_traitsIcESaIcEEESaIS8_EEE5PrintERKSA_PSo
FN:901,911,_ZN7testing8internal16UniversalPrinterIdE5PrintERKdPSo
FN:901,911,_ZN7testing8internal16UniversalPrinterIiE5PrintERKiPSo
FN:901,911,_ZN7testing8internal16UniversalPrinterImE5PrintERKmPSo
FNDA:0,_ZN7testing8internal16UniversalPrinterIRKNSt7__cxx1112basic_stringIcSt11char_traitsIcESaIcEEEE5PrintES9_PSo
FNDA:0,_ZN7testing8internal21UniversalTersePrinterINSt7__cxx1112basic_stringIcSt11char_traitsIcESaIcEEEE5PrintERKS7_PSo
FNDA:0,_ZN7testing8internal21UniversalTersePrinterIdE5PrintERKdPSo
FNDA:0,_ZN7testing8internal21UniversalTersePrinterIiE5PrintERKiPSo
FNDA:0,_ZN7testing8internal21UniversalTersePrinterImE5PrintERKmPSo
FNDA:0,_ZN7testing8internal21UniversalTersePrinterIPKcE5PrintES3_PSo
FNDA:0,_ZN7testing8internal14UniversalPrintINSt7__cxx1112basic_stringIcSt11char_traitsIcESaIcEEEEEvRKT_PSo
FNDA:0,_ZN7testing8internal14UniversalPrintISt5tupleIJRKNSt7__cxx1112basic_stringIcSt11char_traitsIcESaIcEEEEEEEvRKT_PSo
FNDA:0,_ZN7testing8internal14UniversalPrintISt5tupleIJmEEEEvRKT_PSo
FNDA:0,_ZN7testing8internal14UniversalPrintIdEEvRKT_PSo
FNDA:0,_ZN7testing8internal14UniversalPrintIiEEvRKT_PSo
FNDA:0,_ZN7testing8internal14UniversalPrintImEEvRKT_PSo
FNDA:0,_ZN7testing13PrintToStringINSt7__cxx1112basic_stringIcSt11char_traitsIcESaIcEEEEES6_RKT_
FNDA:0,_ZN7testing13PrintToStringIPKcEENSt7__cxx1112basic_stringIcSt11char_traitsIcESaIcEEERKT_
FNDA:0,_ZN7testing13PrintToStringIdEENSt7__cxx1112basic_stringIcSt11char_traitsIcESaIcEEERKT_
FNDA:0,_ZN7testing13PrintToStringIiEENSt7__cxx1112basic_stringIcSt11char_traitsIcESaIcEEERKT_
FNDA:0,_ZN7testing13PrintToStringImEENSt7__cxx1112basic_stringIcSt11char_traitsIcESaIcEEERKT_
FNDA:0,_ZN7testing8internal16ContainerPrinter10PrintValueISt6vectorINSt7__cxx1112basic_stringIcSt11char_traitsIcESaIcEEESaIS9_EEvEEvRKT_PSo
FNDA:0,_ZN7testing8internal52internal_stream_operator_without_lexical_name_lookup13StreamPrinter10PrintValueIivEEDTcvvlsdefp0_fp_ERKT_PSo
FNDA:0,_ZN7testing8internal52internal_stream_operator_without_lexical_name_lookup13StreamPrinter10PrintValueImvEEDTcvvlsdefp0_fp_ERKT_PSo
FNDA:0,_ZN7testing8internal17PrintWithFallbackISt6vectorINSt7__cxx1112basic_stringIcSt11char_traitsIcESaIcEEESaIS8_EEEEvRKT_PSo
FNDA:0,_ZN7testing8internal17PrintWithFallbackIiEEvRKT_PSo
FNDA:0,_ZN7testing8internal17PrintWithFallbackImEEvRKT_PSo
FNDA:0,_ZN7testing8internal19FormatForComparisonINSt7__cxx1112basic_stringIcSt11char_traitsIcESaIcEEEA10_cE6FormatERKS7_
FNDA:0,_ZN7testing8internal19FormatForComparisonINSt7__cxx1112basic_stringIcSt11char_traitsIcESaIcEEEA11_cE6FormatERKS7_
FNDA:0,_ZN7testing8internal19FormatForComparisonINSt7__cxx1112basic_stringIcSt11char_traitsIcESaIcEEEA4_cE6FormatERKS7_
FNDA:0,_ZN7testing8internal19FormatForComparisonINSt7__cxx1112basic_stringIcSt11char_traitsIcESaIcEEEA8_cE6FormatERKS7_
FNDA:0,_ZN7testing8internal19FormatForComparisonIddE6FormatB5cxx11ERKd
FNDA:0,_ZN7testing8internal19FormatForComparisonIdiE6FormatB5cxx11ERKd
FNDA:0,_ZN7testing8internal19FormatForComparisonIidE6FormatB5cxx11ERKi
FNDA:0,_ZN7testing8internal19FormatForComparisonIimE6FormatB5cxx11ERKi
FNDA:0,_ZN7testing8internal19FormatForComparisonImiE6FormatB5cxx11ERKm
FNDA:0,_ZN7testing8internal19FormatForComparisonIA10_cNSt7__cxx1112basic_stringIcSt11char_traitsIcESaIcEEEE6FormatEPKc
FNDA:0,_ZN7testing8internal19FormatForComparisonIA11_cNSt7__cxx1112basic_stringIcSt11char_traitsIcESaIcEEEE6FormatEPKc
FNDA:0,_ZN7testing8internal19FormatForComparisonIA4_cNSt7__cxx1112basic_stringIcSt11char_traitsIcESaIcEEEE6FormatEPKc
FNDA:0,_ZN7testing8internal19FormatForComparisonIA8_cNSt7__cxx1112basic_stringIcSt11char_traitsIcESaIcEEEE6FormatEPKc
FNDA:0,_ZN7testing8internal19FormatForComparisonIPKcNSt7__cxx1112basic_stringIcSt11char_traitsIcESaIcEEEE6FormatES3_
FNDA:0,_ZN7testing8internal33FormatForComparisonFailureMessageIA10_cNSt7__cxx1112basic_stringIcSt11char_traitsIcESaIcEEEEES8_RKT_RKT0_
FNDA:0,_ZN7testing8internal33FormatForComparisonFailureMessageIA11_cNSt7__cxx1112basic_stringIcSt11char_traitsIcESaIcEEEEES8_RKT_RKT0_
FNDA:0,_ZN7testing8internal33FormatForComparisonFailureMessageIA4_cNSt7__cxx1112basic_stringIcSt11char_traitsIcESaIcEEEEES8_RKT_RKT0_
FNDA:0,_ZN7testing8internal33FormatForComparisonFailureMessageIA8_cNSt7__cxx1112basic_stringIcSt11char_traitsIcESaIcEEEEES8_RKT_RKT0_
FNDA:0,_ZN7testing8internal33FormatForComparisonFailureMessageINSt7__cxx1112basic_stringIcSt11char_traitsIcESaIcEEEA10_cEES7_RKT_RKT0_
FNDA:0,_ZN7testing8internal33FormatForComparisonFailureMessageINSt7__cxx1112basic_stringIcSt11char_traitsIcESaIcEEEA11_cEES7_RKT_RKT0_
FNDA:0,_ZN7testing8internal33FormatForComparisonFailureMessageINSt7__cxx1112basic_stringIcSt11char_traitsIcESaIcEEEA4_cEES7_RKT_RKT0_
FNDA:0,_ZN7testing8internal33FormatForComparisonFailureMessageINSt7__cxx1112basic_stringIcSt11char_traitsIcESaIcEEEA8_cEES7_RKT_RKT0_
FNDA:0,_ZN7testing8internal33FormatForComparisonFailureMessageIddEENSt7__cxx1112basic_stringIcSt11char_traitsIcESaIcEEERKT_RKT0_
FNDA:0,_ZN7testing8internal33FormatForComparisonFailureMessageIdiEENSt7__cxx1112basic_stringIcSt11char_traitsIcESaIcEEERKT_RKT0_
FNDA:0,_ZN7testing8internal33FormatForComparisonFailureMessageIidEENSt7__cxx1112basic_stringIcSt11char_traitsIcESaIcEEERKT_RKT0_
FNDA:0,_ZN7testing8internal33FormatForComparisonFailureMessageIimEENSt7__cxx1112basic_stringIcSt11char_traitsIcESaIcEEERKT_RKT0_
FNDA:0,_ZN7testing8internal33FormatForComparisonFailureMessageImiEENSt7__cxx1112basic_stringIcSt11char_traitsIcESaIcEEERKT_RKT0_
FNDA:0,_ZN7testing8internal7PrintToISt6vectorINSt7__cxx1112basic_stringIcSt11char_traitsIcESaIcEEESaIS8_EEEEvRKT_PSo
FNDA:0,_ZN7testing8internal7PrintToIiEEvRKT_PSo
FNDA:0,_ZN7testing8internal7PrintToImEEvRKT_PSo
FNDA:0,_ZN7testing8internal21AppropriateResolutionIdEEiT_
FNDA:0,_ZN7testing8internal7PrintToEdPSo
FNDA:0,_ZN7testing8internal7PrintToERKNSt7__cxx1112basic_stringIcSt11char_traitsIcESaIcEEEPSo
FNDA:0,_ZN7testing8internal12PrintTupleToISt5tupleIJRKNSt7__cxx1112basic_stringIcSt11char_traitsIcESaIcEEEEEEEvRKT_St17integral_constantImLm0EEPSo
FNDA:0,_ZN7testing8internal12PrintTupleToISt5tupleIJmEEEEvRKT_St17integral_constantImLm0EEPSo
FNDA:0,_ZN7testing8internal12PrintTupleToISt5tupleIJRKNSt7__cxx1112basic_stringIcSt11char_traitsIcESaIcEEEEELm1EEEvRKT_St17integral_constantImXT0_EEPSo
FNDA:0,_ZN7testing8internal12PrintTupleToISt5tupleIJmEELm1EEEvRKT_St17integral_constantImXT0_EEPSo
FNDA:0,_ZN7testing8internal7PrintToIJRKNSt7__cxx1112basic_stringIcSt11char_traitsIcESaIcEEEEEEvRKSt5tupleIJDpT_EEPSo
FNDA:0,_ZN7testing8internal7PrintToIJmEEEvRKSt5tupleIJDpT_EEPSo
FNDA:0,_ZN7testing8internal16UniversalPrinterINSt7__cxx1112basic_stringIcSt11char_traitsIcESaIcEEEE5PrintERKS7_PSo
FNDA:0,_ZN7testing8internal16UniversalPrinterISt5tupleIJRKNSt7__cxx1112basic_stringIcSt11char_traitsIcESaIcEEEEEE5PrintERKSB_PSo
FNDA:0,_ZN7testing8internal16UniversalPrinterISt5tupleIJmEEE5PrintERKS3_PSo
FNDA:0,_ZN7testing8internal16UniversalPrinterISt6vectorINSt7__cxx1112basic_stringIcSt11char_traitsIcESaIcEEESaIS8_EEE5PrintERKSA_PSo
FNDA:0,_ZN7testing8internal16UniversalPrinterIdE5PrintERKdPSo
FNDA:0,_ZN7testing8internal16UniversalPrinterIiE5PrintERKiPSo
FNDA:0,_ZN7testing8internal16UniversalPrinterImE5PrintERKmPSo
FNF:69
FNH:0
DA:172,0
DA:173,0
DA:174,0
DA:175,0
DA:176,0
DA:177,0
DA:178,0
DA:179,0
DA:180,0
DA:181,0
DA:184,0
DA:187,0
DA:188,0
DA:191,0
DA:192,0
DA:194,0
DA:195,0
DA:252,0
DA:256,0
DA:257,0
DA:356,0
DA:366,0
DA:367,0
DA:387,0
DA:388,0
DA:396,0
DA:397,0
DA:441,0
DA:467,0
DA:469,0
DA:494,0
DA:495,0
DA:496,0
DA:563,0
DA:564,0
DA:565,0
DA:571,0
DA:572,0
DA:576,0
DA:577,0
DA:578,0
DA:579,0
DA:580,0
DA:581,0
DA:582,0
DA:583,0
DA:584,0
DA:585,0
DA:586,0
DA:587,0
DA:588,0
DA:589,0
DA:590,0
DA:591,0
DA:592,0
DA:593,0
DA:594,0
DA:595,0
DA:597,0
DA:598,0
DA:601,0
DA:602,0
DA:603,0
DA:604,0
DA:605,0
DA:606,0
DA:608,0
DA:609,0
DA:611,0
DA:612,0
DA:613,0
DA:615,0
DA:616,0
DA:619,0
DA:624,0
DA:634,0
DA:635,0
DA:636,0
DA:637,0
DA:638,0
DA:639,0
DA:708,0
DA:709,0
DA:710,0
DA:854,0
DA:855,0
DA:858,0
DA:860,0
DA:866,0
DA:867,0
DA:868,0
DA:871,0
DA:872,0
DA:873,0
DA:874,0
DA:875,0
DA:901,0
DA:910,0
DA:911,0
DA:1051,0
DA:1054,0
DA:1057,0
DA:1058,0
DA:1070,0
DA:1071,0
DA:1072,0
DA:1098,0
DA:1099,0
DA:1100,0
DA:1102,0
DA:1104,0
DA:1189,0
DA:1193,0
DA:1194,0
DA:1229,0
DA:1230,0
DA:1231,0
DA:1232,0
DA:1233,0
LF:119
LH:0
end_of_record
TN:
SF:/home/shasdor/CalcGTestHomeTask/CalcGTest/build/_deps/googletest-src/googletest/include/gtest/gtest.h
FN:1374,1380,_ZN7testing8internal18CmpHelperEQFailureINSt7__cxx1112basic_stringIcSt11char_traitsIcESaIcEEEA10_cEENS_15AssertionResultEPKcSB_RKT_RKT0_
FN:1374,1380,_ZN7testing8internal18CmpHelperEQFailureINSt7__cxx1112basic_stringIcSt11char_traitsIcESaIcEEEA11_cEENS_15AssertionResultEPKcSB_RKT_RKT0_
FN:1374,1380,_ZN7testing8internal18CmpHelperEQFailureINSt7__cxx1112basic_stringIcSt11char_traitsIcESaIcEEEA4_cEENS_15AssertionResultEPKcSB_RKT_RKT0_
FN:1374,1380,_ZN7testing8internal18CmpHelperEQFailureINSt7__cxx1112basic_stringIcSt11char_traitsIcESaIcEEEA8_cEENS_15AssertionResultEPKcSB_RKT_RKT0_
FN:1374,1380,_ZN7testing8internal18CmpHelperEQFailureIdiEENS_15AssertionResultEPKcS4_RKT_RKT0_
FN:1374,1380,_ZN7testing8internal18CmpHelperEQFailureImiEENS_15AssertionResultEPKcS4_RKT_RKT0_
FN:1391,1399,_ZN7testing8internal11CmpHelperEQINSt7__cxx1112basic_stringIcSt11char_traitsIcESaIcEEEA10_cEENS_15AssertionResultEPKcSB_RKT_RKT0_
FN:1391,1399,_ZN7testing8internal11CmpHelperEQINSt7__cxx1112basic_stringIcSt11char_traitsIcESaIcEEEA11_cEENS_15AssertionResultEPKcSB_RKT_RKT0_
FN:1391,1399,_ZN7testing8internal11CmpHelperEQINSt7__cxx1112basic_stringIcSt11char_traitsIcESaIcEEEA4_cEENS_15AssertionResultEPKcSB_RKT_RKT0_
FN:1391,1399,_ZN7testing8internal11CmpHelperEQINSt7__cxx1112basic_stringIcSt11char_traitsIcESaIcEEEA8_cEENS_15AssertionResultEPKcSB_RKT_RKT0_
FN:1391,1399,_ZN7testing8internal11CmpHelperEQIdiEENS_15AssertionResultEPKcS4_RKT_RKT0_
FN:1391,1399,_ZN7testing8internal11CmpHelperEQImiEENS_15AssertionResultEPKcS4_RKT_RKT0_
FN:1410,1414,_ZN7testing8internal8EqHelper7CompareINSt7__cxx1112basic_stringIcSt11char_traitsIcESaIcEEEA10_cLPv0EEENS_15AssertionResultEPKcSD_RKT_RKT0_
FN:1410,1414,_ZN7testing8internal8EqHelper7CompareINSt7__cxx1112basic_stringIcSt11char_traitsIcESaIcEEEA11_cLPv0EEENS_15AssertionResultEPKcSD_RKT_RKT0_
FN:1410,1414,_ZN7testing8internal8EqHelper7CompareINSt7__cxx1112basic_stringIcSt11char_traitsIcESaIcEEEA4_cLPv0EEENS_15AssertionResultEPKcSD_RKT_RKT0_
FN:1410,1414,_ZN7testing8internal8EqHelper7CompareINSt7__cxx1112basic_stringIcSt11char_traitsIcESaIcEEEA8_cLPv0EEENS_15AssertionResultEPKcSD_RKT_RKT0_
FN:1410,1414,_ZN7testing8internal8EqHelper7CompareIdiLPv0EEENS_15AssertionResultEPKcS6_RKT_RKT0_
FN:1410,1414,_ZN7testing8internal8EqHelper7CompareImiLPv0EEENS_15AssertionResultEPKcS6_RKT_RKT0_
FN:1443,1450,_ZN7testing8internal18CmpHelperOpFailureIddEENS_15AssertionResultEPKcS4_RKT_RKT0_S4_
FN:1443,1450,_ZN7testing8internal18CmpHelperOpFailureIdiEENS_15AssertionResultEPKcS4_RKT_RKT0_S4_
FN:1443,1450,_ZN7testing8internal18CmpHelperOpFailureImiEENS_15AssertionResultEPKcS4_RKT_RKT0_S4_
FN:1476,1476,_ZN7testing8internal11CmpHelperLTIdiEENS_15AssertionResultEPKcS4_RKT_RKT0_
FN:1476,1476,_ZN7testing8internal11CmpHelperLTImiEENS_15AssertionResultEPKcS4_RKT_RKT0_
FN:1480,1480,_ZN7testing8internal11CmpHelperGTIddEENS_15AssertionResultEPKcS4_RKT_RKT0_
FN:1582,1602,_ZN7testing8internal24CmpHelperFloatingPointEQIdEENS_15AssertionResultEPKcS4_T_S5_
FN:255,255,_ZN7testing4Test14SetUpTestSuiteEv
FN:263,263,_ZN7testing4Test17TearDownTestSuiteEv
FN:268,268,_ZN7testing4Test16TearDownTestCaseEv
FN:269,269,_ZN7testing4Test13SetUpTestCaseEv
FN:356,356,_ZN7testing4Test5SetupEv
FNDA:0,_ZN7testing8internal18CmpHelperEQFailureINSt7__cxx1112basic_stringIcSt11char_traitsIcESaIcEEEA10_cEENS_15AssertionResultEPKcSB_RKT_RKT0_
FNDA:0,_ZN7testing8internal18CmpHelperEQFailureINSt7__cxx1112basic_stringIcSt11char_traitsIcESaIcEEEA11_cEENS_15AssertionResultEPKcSB_RKT_RKT0_
FNDA:0,_ZN7testing8internal18CmpHelperEQFailureINSt7__cxx1112basic_stringIcSt11char_traitsIcESaIcEEEA4_cEENS_15AssertionResultEPKcSB_RKT_RKT0_
FNDA:0,_ZN7testing8internal18CmpHelperEQFailureINSt7__cxx1112basic_stringIcSt11char_traitsIcESaIcEEEA8_cEENS_15AssertionResultEPKcSB_RKT_RKT0_
FNDA:0,_ZN7testing8internal18CmpHelperEQFailureIdiEENS_15AssertionResultEPKcS4_RKT_RKT0_
FNDA:0,_ZN7testing8internal18CmpHelperEQFailureImiEENS_15AssertionResultEPKcS4_RKT_RKT0_
FNDA:2,_ZN7testing8internal11CmpHelperEQINSt7__cxx1112basic_stringIcSt11char_traitsIcESaIcEEEA10_cEENS_15AssertionResultEPKcSB_RKT_RKT0_
FNDA:1,_ZN7testing8internal11CmpHelperEQINSt7__cxx1112basic_stringIcSt11char_traitsIcESaIcEEEA11_cEENS_15AssertionResultEPKcSB_RKT_RKT0_
FNDA:2,_ZN7testing8internal11CmpHelperEQINSt7__cxx1112basic_stringIcSt11char_traitsIcESaIcEEEA4_cEENS_15AssertionResultEPKcSB_RKT_RKT0_
FNDA:1,_ZN7testing8internal11CmpHelperEQINSt7__cxx1112basic_stringIcSt11char_traitsIcESaIcEEEA8_cEENS_15AssertionResultEPKcSB_RKT_RKT0_
FNDA:4,_ZN7testing8internal11CmpHelperEQIdiEENS_15AssertionResultEPKcS4_RKT_RKT0_
FNDA:4,_ZN7testing8internal11CmpHelperEQImiEENS_15AssertionResultEPKcS4_RKT_RKT0_
FNDA:2,_ZN7testing8internal8EqHelper7CompareINSt7__cxx1112basic_stringIcSt11char_traitsIcESaIcEEEA10_cLPv0EEENS_15AssertionResultEPKcSD_RKT_RKT0_
FNDA:1,_ZN7testing8internal8EqHelper7CompareINSt7__cxx1112basic_stringIcSt11char_traitsIcESaIcEEEA11_cLPv0EEENS_15AssertionResultEPKcSD_RKT_RKT0_
FNDA:2,_ZN7testing8internal8EqHelper7CompareINSt7__cxx1112basic_stringIcSt11char_traitsIcESaIcEEEA4_cLPv0EEENS_15AssertionResultEPKcSD_RKT_RKT0_
FNDA:1,_ZN7testing8internal8EqHelper7CompareINSt7__cxx1112basic_stringIcSt11char_traitsIcESaIcEEEA8_cLPv0EEENS_15AssertionResultEPKcSD_RKT_RKT0_
FNDA:4,_ZN7testing8internal8EqHelper7CompareIdiLPv0EEENS_15AssertionResultEPKcS6_RKT_RKT0_
FNDA:4,_ZN7testing8internal8EqHelper7CompareImiLPv0EEENS_15AssertionResultEPKcS6_RKT_RKT0_
FNDA:0,_ZN7testing8internal18CmpHelperOpFailureIddEENS_15AssertionResultEPKcS4_RKT_RKT0_S4_
FNDA:0,_ZN7testing8internal18CmpHelperOpFailureIdiEENS_15AssertionResultEPKcS4_RKT_RKT0_S4_
FNDA:0,_ZN7testing8internal18CmpHelperOpFailureImiEENS_15AssertionResultEPKcS4_RKT_RKT0_S4_
FNDA:2,_ZN7testing8internal11CmpHelperLTIdiEENS_15AssertionResultEPKcS4_RKT_RKT0_
FNDA:0,_ZN7testing8internal11CmpHelperLTImiEENS_15AssertionResultEPKcS4_RKT_RKT0_
FNDA:2,_ZN7testing8internal11CmpHelperGTIddEENS_15AssertionResultEPKcS4_RKT_RKT0_
FNDA:5,_ZN7testing8internal24CmpHelperFloatingPointEQIdEENS_15AssertionResultEPKcS4_T_S5_
FNDA:0,_ZN7testing4Test14SetUpTestSuiteEv
FNDA:0,_ZN7testing4Test17TearDownTestSuiteEv
FNDA:0,_ZN7testing4Test16TearDownTestCaseEv
FNDA:0,_ZN7testing4Test13SetUpTestCaseEv
FNDA:0,_ZN7testing4Test5SetupEv
FNF:30
FNH:15
DA:255,0
DA:263,0
DA:268,0
DA:269,0
DA:356,0
DA:1374,0
DA:1379,0
DA:1391,14
DA:1394,14
DA:1395,14
DA:1398,0
DA:1410,14
DA:1413,14
DA:1443,0
DA:1447,0
DA:1448,0
DA:1449,0
DA:1476,2
DA:1480,2
DA:1582,5
DA:1585,5
DA:1587,5
DA:1588,5
DA:1591,0
DA:1592,0
DA:1593,0
DA:1595,0
DA:1596,0
DA:1597,0
DA:1601,0
DA:1602,0
LF:31
LH:11
end_of_record
TN:
SF:/home/shasdor/CalcGTestHomeTask/CalcGTest/build/_deps/googletest-src/googletest/include/gtest/internal/gtest-internal.h
FN:293,293,_ZN7testing8internal13FloatingPointIdEC2Ed
FN:315,315,_ZNK7testing8internal13FloatingPointIdE13exponent_bitsEv
FN:318,318,_ZNK7testing8internal13FloatingPointIdE13fraction_bitsEv
FN:324,328,_ZNK7testing8internal13FloatingPointIdE6is_nanEv
FN:336,342,_ZNK7testing8internal13FloatingPointIdE12AlmostEqualsERKS2_
FN:360,368,_ZN7testing8internal13FloatingPointIdE24SignAndMagnitudeToBiasedEm
FN:372,376,_ZN7testing8internal13FloatingPointIdE38DistanceBetweenSignAndMagnitudeNumbersEmm
FN:410,416,_ZN7testing8internal9GetTypeIdI12BoundaryTestEEPKvv
FN:410,416,_ZN7testing8internal9GetTypeIdI12HistoryTestsEEPKvv
FN:429,429,_ZN7testing8internal15TestFactoryBaseD0Ev
FN:429,429,_ZN7testing8internal15TestFactoryBaseD2Ev
FN:436,436,_ZN7testing8internal15TestFactoryBaseC2Ev
FN:448,448,_ZN7testing8internal15TestFactoryImplI39HistoryTests_GetLastMoreThanStored_TestE10CreateTestEv
FN:448,448,_ZN7testing8internal15TestFactoryImplI42HistoryTests_AddAndGetSingleOperation_TestE10CreateTestEv
FN:448,448,_ZN7testing8internal15TestFactoryImplI42HistoryTests_EmptyHistoryReturnsEmpty_TestE10CreateTestEv
FN:448,448,_ZN7testing8internal15TestFactoryImplI43HistoryTests_DISABLED_History_Overflow_TestE10CreateTestEv
FN:448,448,_ZN7testing8internal15TestFactoryImplI43HistoryTests_GetLastMultipleOperations_TestE10CreateTestEv
FN:448,448,_ZN7testing8internal15TestFactoryImplI44HistoryTests_GetLastOperationsZeroCount_TestE10CreateTestEv
FN:448,448,_ZN7testing8internal15TestFactoryImplI49BoundaryTest_Divide_MaxByTwo_ShouldBeHalfMax_TestE10CreateTestEv
FN:448,448,_ZN7testing8internal15TestFactoryImplI51BoundaryTest_Subtract_MaxMinusMax_ShouldBeZero_TestE10CreateTestEv
FN:448,448,_ZN7testing8internal15TestFactoryImplI54BoundaryTest_Multiply_MinAndHalf_ShouldBePositive_TestE10CreateTestEv
FN:448,448,_ZN7testing8internal15TestFactoryImplI55BoundaryTest_Add_MaxValue_ShouldOverflowToInfinity_TestE10CreateTestEv
FN:448,448,_ZN7testing8internal15TestFactoryImplI56SimpleCalculatorOperationTest_BaseOperations_AndLog_TestE10CreateTestEv
FN:448,448,_ZN7testing8internal15TestFactoryImplI58BoundaryTest_Add_MinAndEpsilon_ShouldBeGreaterThanMin_TestE10CreateTestEv
FN:448,448,_ZN7testing8internal15TestFactoryImplI61BoundaryTest_Add_MaxAndEpsilon_ShouldBeMaxDueToPrecision_TestE10CreateTestEv
FN:448,448,_ZN7testing8internal15TestFactoryImplI63BoundaryTest_Multiply_MaxTimesTwo_ShouldOverflowToInfinity_TestE10CreateTestEv
FN:448,448,_ZN7testing8internal15TestFactoryImplI64SimpleCalculatorOperationTest_Divide_ByZero_ThrowsException_TestE10CreateTestEv
FN:448,448,_ZN7testing8internal15TestFactoryImplI65BoundaryTest_Divide_NegativeMaxByTwo_ShouldBeHalfNegativeMax_TestE10CreateTestEv
FN:448,448,_ZN7testing8internal15TestFactoryImplI67BoundaryTest_Subtract_NegativeMaxMinusNegativeMax_ShouldBeZero_TestE10CreateTestEv
FN:448,448,_ZN7testing8internal15TestFactoryImplI67SimpleCalculatorOperationTest_FractionalDivision_LogsAndResult_TestE10CreateTestEv
FN:448,448,_ZN7testing8internal15TestFactoryImplI72BoundaryTest_Add_NegativeMaxValues_ShouldOverflowToNegativeInfinity_TestE10CreateTestEv
FN:448,448,_ZN7testing8internal15TestFactoryImplI79BoundaryTest_Multiply_NegativeMaxTimesTwo_ShouldOverflowToNegativeInfinity_TestE10CreateTestEv
FN:469,470,_ZN7testing8internal12CodeLocationC2ENSt7__cxx1112basic_stringIcSt11char_traitsIcESaIcEEEi
FN:482,485,_ZN7testing8internal19GetNotDefaultOrNullEPFvvES2_
FN:497,516,_ZN7testing8internal16SuiteApiResolverI12BoundaryTestE19GetSetUpCaseOrSuiteEPKci
FN:497,516,_ZN7testing8internal16SuiteApiResolverI12HistoryTestsE19GetSetUpCaseOrSuiteEPKci
FN:497,516,_ZN7testing8internal16SuiteApiResolverINS_4TestEE19GetSetUpCaseOrSuiteEPKci
FN:518,537,_ZN7testing8internal16SuiteApiResolverI12BoundaryTestE22GetTearDownCaseOrSuiteEPKci
FN:518,537,_ZN7testing8internal16SuiteApiResolverI12HistoryTestsE22GetTearDownCaseOrSuiteEPKci
FN:518,537,_ZN7testing8internal16SuiteApiResolverINS_4TestEE22GetTearDownCaseOrSuiteEPKci
FN:829,829,_ZN7testing8internal14TrueWithStringC2Ev
FN:832,832,_ZNK7testing8internal14TrueWithStringcvbEv
FNDA:10,_ZN7testing8internal13FloatingPointIdEC2Ed
FNDA:10,_ZNK7testing8internal13FloatingPointIdE13exponent_bitsEv
FNDA:0,_ZNK7testing8internal13FloatingPointIdE13fraction_bitsEv
FNDA:10,_ZNK7testing8internal13FloatingPointIdE6is_nanEv
FNDA:5,_ZNK7testing8internal13FloatingPointIdE12AlmostEqualsERKS2_
FNDA:10,_ZN7testing8internal13FloatingPointIdE24SignAndMagnitudeToBiasedEm
FNDA:5,_ZN7testing8internal13FloatingPointIdE38DistanceBetweenSignAndMagnitudeNumbersEmm
FNDA:132,_ZN7testing8internal9GetTypeIdI12BoundaryTestEEPKvv
FNDA:36,_ZN7testing8internal9GetTypeIdI12HistoryTestsEEPKvv
FNDA:0,_ZN7testing8internal15TestFactoryBaseD0Ev
FNDA:180,_ZN7testing8internal15TestFactoryBaseD2Ev
FNDA:180,_ZN7testing8internal15TestFactoryBaseC2Ev
FNDA:1,_ZN7testing8internal15TestFactoryImplI39HistoryTests_GetLastMoreThanStored_TestE10CreateTestEv
FNDA:1,_ZN7testing8internal15TestFactoryImplI42HistoryTests_AddAndGetSingleOperation_TestE10CreateTestEv
FNDA:1,_ZN7testing8internal15TestFactoryImplI42HistoryTests_EmptyHistoryReturnsEmpty_TestE10CreateTestEv
FNDA:0,_ZN7testing8internal15TestFactoryImplI43HistoryTests_DISABLED_History_Overflow_TestE10CreateTestEv
FNDA:1,_ZN7testing8internal15TestFactoryImplI43HistoryTests_GetLastMultipleOperations_TestE10CreateTestEv
FNDA:1,_ZN7testing8internal15TestFactoryImplI44HistoryTests_GetLastOperationsZeroCount_TestE10CreateTestEv
FNDA:1,_ZN7testing8internal15TestFactoryImplI49BoundaryTest_Divide_MaxByTwo_ShouldBeHalfMax_TestE10CreateTestEv
FNDA:1,_ZN7testing8internal15TestFactoryImplI51BoundaryTest_Subtract_MaxMinusMax_ShouldBeZero_TestE10CreateTestEv
FNDA:1,_ZN7testing8internal15TestFactoryImplI54BoundaryTest_Multiply_MinAndHalf_ShouldBePositive_TestE10CreateTestEv
FNDA:1,_ZN7testing8internal15TestFactoryImplI55BoundaryTest_Add_MaxValue_ShouldOverflowToInfinity_TestE10CreateTestEv
FNDA:1,_ZN7testing8internal15TestFactoryImplI56SimpleCalculatorOperationTest_BaseOperations_AndLog_TestE10CreateTestEv
FNDA:1,_ZN7testing8internal15TestFactoryImplI58BoundaryTest_Add_MinAndEpsilon_ShouldBeGreaterThanMin_TestE10CreateTestEv
FNDA:1,_ZN7testing8internal15TestFactoryImplI61BoundaryTest_Add_MaxAndEpsilon_ShouldBeMaxDueToPrecision_TestE10CreateTestEv
FNDA:1,_ZN7testing8internal15TestFactoryImplI63BoundaryTest_Multiply_MaxTimesTwo_ShouldOverflowToInfinity_TestE10CreateTestEv
FNDA:1,_ZN7testing8internal15TestFactoryImplI64SimpleCalculatorOperationTest_Divide_ByZero_ThrowsException_TestE10CreateTestEv
FNDA:1,_ZN7testing8internal15TestFactoryImplI65BoundaryTest_Divide_NegativeMaxByTwo_ShouldBeHalfNegativeMax_TestE10CreateTestEv
FNDA:1,_ZN7testing8internal15TestFactoryImplI67BoundaryTest_Subtract_NegativeMaxMinusNegativeMax_ShouldBeZero_TestE10CreateTestEv
FNDA:1,_ZN7testing8internal15TestFactoryImplI67SimpleCalculatorOperationTest_FractionalDivision_LogsAndResult_TestE10CreateTestEv
FNDA:1,_ZN7testing8internal15TestFactoryImplI72BoundaryTest_Add_NegativeMaxValues_ShouldOverflowToNegativeInfinity_TestE10CreateTestEv
FNDA:1,_ZN7testing8internal15TestFactoryImplI79BoundaryTest_Multiply_NegativeMaxTimesTwo_ShouldOverflowToNegativeInfinity_TestE10CreateTestEv
FNDA:180,_ZN7testing8internal12CodeLocationC2ENSt7__cxx1112basic_stringIcSt11char_traitsIcESaIcEEEi
FNDA:720,_ZN7testing8internal19GetNotDefaultOrNullEPFvvES2_
FNDA:132,_ZN7testing8internal16SuiteApiResolverI12BoundaryTestE19GetSetUpCaseOrSuiteEPKci
FNDA:36,_ZN7testing8internal16SuiteApiResolverI12HistoryTestsE19GetSetUpCaseOrSuiteEPKci
FNDA:12,_ZN7testing8internal16SuiteApiResolverINS_4TestEE19GetSetUpCaseOrSuiteEPKci
FNDA:132,_ZN7testing8internal16SuiteApiResolverI12BoundaryTestE22GetTearDownCaseOrSuiteEPKci
FNDA:36,_ZN7testing8internal16SuiteApiResolverI12HistoryTestsE22GetTearDownCaseOrSuiteEPKci
FNDA:12,_ZN7testing8internal16SuiteApiResolverINS_4TestEE22GetTearDownCaseOrSuiteEPKci
FNDA:1,_ZN7testing8internal14TrueWithStringC2Ev
FNDA:1,_ZNK7testing8internal14TrueWithStringcvbEv
FNF:42
FNH:39
DA:293,10
DA:315,10
DA:318,0
DA:324,10
DA:327,10
DA:336,5
DA:339,5
DA:341,5
DA:360,10
DA:361,10
DA:363,2
DA:366,8
DA:372,5
DA:373,5
DA:374,5
DA:375,5
DA:410,168
DA:415,168
DA:429,180
DA:436,180
DA:448,19
DA:469,180
DA:470,180
DA:482,720
DA:484,720
DA:497,180
DA:501,180
DA:503,180
DA:505,180
DA:508,0
DA:510,180
DA:518,180
DA:522,180
DA:524,180
DA:526,180
DA:529,0
DA:531,180
DA:829,1
DA:832,1
LF:39
LH:36
end_of_record
TN:
SF:/home/shasdor/CalcGTestHomeTask/CalcGTest/build/_deps/googletest-src/googletest/include/gtest/internal/gtest-port.h
FN:1037,1037,_ZN7testing8internal8GTestLog9GetStreamEv
FN:1135,1137,_ZN7testing8internal13ImplicitCast_ISt6vectorINSt7__cxx1112basic_stringIcSt11char_traitsIcESaIcEEESaIS8_EEEET_SB_
FN:1145,1152,_ZN7testing8internal27CheckedDowncastToActualTypeINS0_11ThreadLocalIPNS_8SequenceEE11ValueHolderENS0_26ThreadLocalValueHolderBaseEEEPT_PT0_
FN:1644,1648,_ZN7testing8internal9MutexBase4LockEv
FN:1651,1658,_ZN7testing8internal9MutexBase6UnlockEv
FN:1662,1665,_ZNK7testing8internal9MutexBase10AssertHeldEv
FN:1719,1719,_ZN7testing8internal14GTestMutexLockC2EPNS0_9MutexBaseE
FN:1721,1721,_ZN7testing8internal14GTestMutexLockD2Ev
FN:1769,1769,_ZNK7testing8internal11ThreadLocalIPNS_8SequenceEE7pointerEv
FN:1770,1770,_ZNK7testing8internal11ThreadLocalIPNS_8SequenceEE3getEv
FN:1780,1780,_ZN7testing8internal11ThreadLocalIPNS_8SequenceEE11ValueHolder7pointerEv
FN:1797,1808,_ZNK7testing8internal11ThreadLocalIPNS_8SequenceEE16GetOrCreateValueEv
FNDA:0,_ZN7testing8internal8GTestLog9GetStreamEv
FNDA:1,_ZN7testing8internal13ImplicitCast_ISt6vectorINSt7__cxx1112basic_stringIcSt11char_traitsIcESaIcEEESaIS8_EEEET_SB_
FNDA:4,_ZN7testing8internal27CheckedDowncastToActualTypeINS0_11ThreadLocalIPNS_8SequenceEE11ValueHolderENS0_26ThreadLocalValueHolderBaseEEEPT_PT0_
FNDA:84,_ZN7testing8internal9MutexBase4LockEv
FNDA:84,_ZN7testing8internal9MutexBase6UnlockEv
FNDA:102,_ZNK7testing8internal9MutexBase10AssertHeldEv
FNDA:72,_ZN7testing8internal14GTestMutexLockC2EPNS0_9MutexBaseE
FNDA:72,_ZN7testing8internal14GTestMutexLockD2Ev
FNDA:6,_ZNK7testing8internal11ThreadLocalIPNS_8SequenceEE7pointerEv
FNDA:6,_ZNK7testing8internal11ThreadLocalIPNS_8SequenceEE3getEv
FNDA:6,_ZN7testing8internal11ThreadLocalIPNS_8SequenceEE11ValueHolder7pointerEv
FNDA:6,_ZNK7testing8internal11ThreadLocalIPNS_8SequenceEE16GetOrCreateValueEv
FNF:12
FNH:11
DA:1037,0
DA:1135,1
DA:1136,1
DA:1145,4
DA:1149,4
DA:1151,4
DA:1644,84
DA:1645,84
DA:1646,84
DA:1647,84
DA:1648,84
DA:1651,84
DA:1656,84
DA:1657,84
DA:1658,84
DA:1662,102
DA:1663,102
DA:1664,0
DA:1665,102
DA:1719,72
DA:1721,72
DA:1769,6
DA:1770,6
DA:1780,6
DA:1797,6
DA:1799,6
DA:1800,6
DA:1801,4
DA:1804,2
DA:1805,2
DA:1806,2
DA:1807,2
LF:32
LH:30
end_of_record
TN:
SF:/home/shasdor/CalcGTestHomeTask/CalcGTest/build/_deps/googletest-src/googletest/include/gtest/internal/gtest-type-util.h
FN:61,87,_ZN7testing8internal31CanonicalizeForStdLibVersioningENSt7__cxx1112basic_stringIcSt11char_traitsIcESaIcEEE
FN:91,121,_ZN7testing8internal11GetTypeNameB5cxx11ERKSt9type_info
FNDA:0,_ZN7testing8internal31CanonicalizeForStdLibVersioningENSt7__cxx1112basic_stringIcSt11char_traitsIcESaIcEEE
FNDA:0,_ZN7testing8internal11GetTypeNameB5cxx11ERKSt9type_info
FNF:2
FNH:0
DA:61,0
DA:63,0
DA:64,0
DA:65,0
DA:67,0
DA:74,0
DA:75,0
DA:78,0
DA:79,0
DA:80,0
DA:83,0
DA:84,0
DA:86,0
DA:91,0
DA:92,0
DA:94,0
DA:100,0
DA:101,0
DA:102,0
DA:103,0
DA:121,0
LF:21
LH:0
end_of_record
TN:
SF:/home/shasdor/CalcGTestHomeTask/CalcGTest/tests/CalcBaseOperationsTests.cpp
FN:27,27,_ZN56SimpleCalculatorOperationTest_BaseOperations_AndLog_Test8TestBodyEv
FN:27,27,_ZN56SimpleCalculatorOperationTest_BaseOperations_AndLog_TestC2Ev
FN:27,27,_ZN56SimpleCalculatorOperationTest_BaseOperations_AndLog_TestD0Ev
FN:27,27,_ZN56SimpleCalculatorOperationTest_BaseOperations_AndLog_TestD2Ev
FN:55,55,_ZN67SimpleCalculatorOperationTest_FractionalDivision_LogsAndResult_Test8TestBodyEv
FN:55,55,_ZN67SimpleCalculatorOperationTest_FractionalDivision_LogsAndResult_TestC2Ev
FN:55,55,_ZN67SimpleCalculatorOperationTest_FractionalDivision_LogsAndResult_TestD0Ev
FN:55,55,_ZN67SimpleCalculatorOperationTest_FractionalDivision_LogsAndResult_TestD2Ev
FN:65,65,_ZN64SimpleCalculatorOperationTest_Divide_ByZero_ThrowsException_Test8TestBodyEv
FN:65,65,_ZN64SimpleCalculatorOperationTest_Divide_ByZero_ThrowsException_TestC2Ev
FN:65,65,_ZN64SimpleCalculatorOperationTest_Divide_ByZero_ThrowsException_TestD0Ev
FN:65,65,_ZN64SimpleCalculatorOperationTest_Divide_ByZero_ThrowsException_TestD2Ev
FNDA:1,_ZN56SimpleCalculatorOperationTest_BaseOperations_AndLog_Test8TestBodyEv
FNDA:1,_ZN56SimpleCalculatorOperationTest_BaseOperations_AndLog_TestC2Ev
FNDA:1,_ZN56SimpleCalculatorOperationTest_BaseOperations_AndLog_TestD0Ev
FNDA:1,_ZN56SimpleCalculatorOperationTest_BaseOperations_AndLog_TestD2Ev
FNDA:1,_ZN67SimpleCalculatorOperationTest_FractionalDivision_LogsAndResult_Test8TestBodyEv
FNDA:1,_ZN67SimpleCalculatorOperationTest_FractionalDivision_LogsAndResult_TestC2Ev
FNDA:1,_ZN67SimpleCalculatorOperationTest_FractionalDivision_LogsAndResult_TestD0Ev
FNDA:1,_ZN67SimpleCalculatorOperationTest_FractionalDivision_LogsAndResult_TestD2Ev
FNDA:1,_ZN64SimpleCalculatorOperationTest_Divide_ByZero_ThrowsException_Test8TestBodyEv
FNDA:1,_ZN64SimpleCalculatorOperationTest_Divide_ByZero_ThrowsException_TestC2Ev
FNDA:1,_ZN64SimpleCalculatorOperationTest_Divide_ByZero_ThrowsException_TestD0Ev
FNDA:1,_ZN64SimpleCalculatorOperationTest_Divide_ByZero_ThrowsException_TestD2Ev
FNF:12
FNH:12
DA:27,4
DA:29,1
DA:30,1
DA:31,1
DA:33,1
DA:34,1
DA:36,1
DA:37,1
DA:39,1
DA:40,1
DA:42,1
DA:43,1
DA:45,6
DA:47,1
DA:48,1
DA:49,1
DA:50,1
DA:51,4
DA:55,4
DA:57,1
DA:58,1
DA:60,1
DA:61,1
DA:62,1
DA:65,4
DA:67,1
DA:68,1
DA:69,1
DA:70,1
LF:29
LH:29
end_of_record
TN:
SF:/home/shasdor/CalcGTestHomeTask/CalcGTest/tests/CalcBoundaryOperationsTests.cpp
FN:19,22,_ZN12BoundaryTest5SetUpEv
FN:24,27,_ZN12BoundaryTest8TearDownEv
FN:33,33,_ZN55BoundaryTest_Add_MaxValue_ShouldOverflowToInfinity_Test8TestBodyEv
FN:33,33,_ZN55BoundaryTest_Add_MaxValue_ShouldOverflowToInfinity_TestC2Ev
FN:33,33,_ZN55BoundaryTest_Add_MaxValue_ShouldOverflowToInfinity_TestD0Ev
FN:33,33,_ZN55BoundaryTest_Add_MaxValue_ShouldOverflowToInfinity_TestD2Ev
FN:38,38,_ZN51BoundaryTest_Subtract_MaxMinusMax_ShouldBeZero_Test8TestBodyEv
FN:38,38,_ZN51BoundaryTest_Subtract_MaxMinusMax_ShouldBeZero_TestC2Ev
FN:38,38,_ZN51BoundaryTest_Subtract_MaxMinusMax_ShouldBeZero_TestD0Ev
FN:38,38,_ZN51BoundaryTest_Subtract_MaxMinusMax_ShouldBeZero_TestD2Ev
FN:43,43,_ZN63BoundaryTest_Multiply_MaxTimesTwo_ShouldOverflowToInfinity_Test8TestBodyEv
FN:43,43,_ZN63BoundaryTest_Multiply_MaxTimesTwo_ShouldOverflowToInfinity_TestC2Ev
FN:43,43,_ZN63BoundaryTest_Multiply_MaxTimesTwo_ShouldOverflowToInfinity_TestD0Ev
FN:43,43,_ZN63BoundaryTest_Multiply_MaxTimesTwo_ShouldOverflowToInfinity_TestD2Ev
FN:48,48,_ZN49BoundaryTest_Divide_MaxByTwo_ShouldBeHalfMax_Test8TestBodyEv
FN:48,48,_ZN49BoundaryTest_Divide_MaxByTwo_ShouldBeHalfMax_TestC2Ev
FN:48,48,_ZN49BoundaryTest_Divide_MaxByTwo_ShouldBeHalfMax_TestD0Ev
FN:48,48,_ZN49BoundaryTest_Divide_MaxByTwo_ShouldBeHalfMax_TestD2Ev
FN:53,56,_ZN61BoundaryTest_Add_MaxAndEpsilon_ShouldBeMaxDueToPrecision_Test8TestBodyEv
FN:53,56,_ZN61BoundaryTest_Add_MaxAndEpsilon_ShouldBeMaxDueToPrecision_TestC2Ev
FN:53,56,_ZN61BoundaryTest_Add_MaxAndEpsilon_ShouldBeMaxDueToPrecision_TestD0Ev
FN:53,56,_ZN61BoundaryTest_Add_MaxAndEpsilon_ShouldBeMaxDueToPrecision_TestD2Ev
FN:59,59,_ZN72BoundaryTest_Add_NegativeMaxValues_ShouldOverflowToNegativeInfinity_Test8TestBodyEv
FN:59,59,_ZN72BoundaryTest_Add_NegativeMaxValues_ShouldOverflowToNegativeInfinity_TestC2Ev
FN:59,59,_ZN72BoundaryTest_Add_NegativeMaxValues_ShouldOverflowToNegativeInfinity_TestD0Ev
FN:59,59,_ZN72BoundaryTest_Add_NegativeMaxValues_ShouldOverflowToNegativeInfinity_TestD2Ev
FN:65,65,_ZN67BoundaryTest_Subtract_NegativeMaxMinusNegativeMax_ShouldBeZero_Test8TestBodyEv
FN:65,65,_ZN67BoundaryTest_Subtract_NegativeMaxMinusNegativeMax_ShouldBeZero_TestC2Ev
FN:65,65,_ZN67BoundaryTest_Subtract_NegativeMaxMinusNegativeMax_ShouldBeZero_TestD0Ev
FN:65,65,_ZN67BoundaryTest_Subtract_NegativeMaxMinusNegativeMax_ShouldBeZero_TestD2Ev
FN:70,70,_ZN79BoundaryTest_Multiply_NegativeMaxTimesTwo_ShouldOverflowToNegativeInfinity_Test8TestBodyEv
FN:70,70,_ZN79BoundaryTest_Multiply_NegativeMaxTimesTwo_ShouldOverflowToNegativeInfinity_TestC2Ev
FN:70,70,_ZN79BoundaryTest_Multiply_NegativeMaxTimesTwo_ShouldOverflowToNegativeInfinity_TestD0Ev
FN:70,70,_ZN79BoundaryTest_Multiply_NegativeMaxTimesTwo_ShouldOverflowToNegativeInfinity_TestD2Ev
FN:76,76,_ZN65BoundaryTest_Divide_NegativeMaxByTwo_ShouldBeHalfNegativeMax_Test8TestBodyEv
FN:76,76,_ZN65BoundaryTest_Divide_NegativeMaxByTwo_ShouldBeHalfNegativeMax_TestC2Ev
FN:76,76,_ZN65BoundaryTest_Divide_NegativeMaxByTwo_ShouldBeHalfNegativeMax_TestD0Ev
FN:76,76,_ZN65BoundaryTest_Divide_NegativeMaxByTwo_ShouldBeHalfNegativeMax_TestD2Ev
FN:83,86,_ZN54BoundaryTest_Multiply_MinAndHalf_ShouldBePositive_Test8TestBodyEv
FN:83,86,_ZN54BoundaryTest_Multiply_MinAndHalf_ShouldBePositive_TestC2Ev
FN:83,86,_ZN54BoundaryTest_Multiply_MinAndHalf_ShouldBePositive_TestD0Ev
FN:83,86,_ZN54BoundaryTest_Multiply_MinAndHalf_ShouldBePositive_TestD2Ev
FN:88,91,_ZN58BoundaryTest_Add_MinAndEpsilon_ShouldBeGreaterThanMin_Test8TestBodyEv
FN:88,91,_ZN58BoundaryTest_Add_MinAndEpsilon_ShouldBeGreaterThanMin_TestC2Ev
FN:88,91,_ZN58BoundaryTest_Add_MinAndEpsilon_ShouldBeGreaterThanMin_TestD0Ev
FN:88,91,_ZN58BoundaryTest_Add_MinAndEpsilon_ShouldBeGreaterThanMin_TestD2Ev
FNDA:11,_ZN12BoundaryTest5SetUpEv
FNDA:11,_ZN12BoundaryTest8TearDownEv
FNDA:1,_ZN55BoundaryTest_Add_MaxValue_ShouldOverflowToInfinity_Test8TestBodyEv
FNDA:1,_ZN55BoundaryTest_Add_MaxValue_ShouldOverflowToInfinity_TestC2Ev
FNDA:1,_ZN55BoundaryTest_Add_MaxValue_ShouldOverflowToInfinity_TestD0Ev
FNDA:1,_ZN55BoundaryTest_Add_MaxValue_ShouldOverflowToInfinity_TestD2Ev
FNDA:1,_ZN51BoundaryTest_Subtract_MaxMinusMax_ShouldBeZero_Test8TestBodyEv
FNDA:1,_ZN51BoundaryTest_Subtract_MaxMinusMax_ShouldBeZero_TestC2Ev
FNDA:1,_ZN51BoundaryTest_Subtract_MaxMinusMax_ShouldBeZero_TestD0Ev
FNDA:1,_ZN51BoundaryTest_Subtract_MaxMinusMax_ShouldBeZero_TestD2Ev
FNDA:1,_ZN63BoundaryTest_Multiply_MaxTimesTwo_ShouldOverflowToInfinity_Test8TestBodyEv
FNDA:1,_ZN63BoundaryTest_Multiply_MaxTimesTwo_ShouldOverflowToInfinity_TestC2Ev
FNDA:1,_ZN63BoundaryTest_Multiply_MaxTimesTwo_ShouldOverflowToInfinity_TestD0Ev
FNDA:1,_ZN63BoundaryTest_Multiply_MaxTimesTwo_ShouldOverflowToInfinity_TestD2Ev
FNDA:1,_ZN49BoundaryTest_Divide_MaxByTwo_ShouldBeHalfMax_Test8TestBodyEv
FNDA:1,_ZN49BoundaryTest_Divide_MaxByTwo_ShouldBeHalfMax_TestC2Ev
FNDA:1,_ZN49BoundaryTest_Divide_MaxByTwo_ShouldBeHalfMax_TestD0Ev
FNDA:1,_ZN49BoundaryTest_Divide_MaxByTwo_ShouldBeHalfMax_TestD2Ev
FNDA:1,_ZN61BoundaryTest_Add_MaxAndEpsilon_ShouldBeMaxDueToPrecision_Test8TestBodyEv
FNDA:1,_ZN61BoundaryTest_Add_MaxAndEpsilon_ShouldBeMaxDueToPrecision_TestC2Ev
FNDA:1,_ZN61BoundaryTest_Add_MaxAndEpsilon_ShouldBeMaxDueToPrecision_TestD0Ev
FNDA:1,_ZN61BoundaryTest_Add_MaxAndEpsilon_ShouldBeMaxDueToPrecision_TestD2Ev
FNDA:1,_ZN72BoundaryTest_Add_NegativeMaxValues_ShouldOverflowToNegativeInfinity_Test8TestBodyEv
FNDA:1,_ZN72BoundaryTest_Add_NegativeMaxValues_ShouldOverflowToNegativeInfinity_TestC2Ev
FNDA:1,_ZN72BoundaryTest_Add_NegativeMaxValues_ShouldOverflowToNegativeInfinity_TestD0Ev
FNDA:1,_ZN72BoundaryTest_Add_NegativeMaxValues_ShouldOverflowToNegativeInfinity_TestD2Ev
FNDA:1,_ZN67BoundaryTest_Subtract_NegativeMaxMinusNegativeMax_ShouldBeZero_Test8TestBodyEv
FNDA:1,_ZN67BoundaryTest_Subtract_NegativeMaxMinusNegativeMax_ShouldBeZero_TestC2Ev
FNDA:1,_ZN67BoundaryTest_Subtract_NegativeMaxMinusNegativeMax_ShouldBeZero_TestD0Ev
FNDA:1,_ZN67BoundaryTest_Subtract_NegativeMaxMinusNegativeMax_ShouldBeZero_TestD2Ev
FNDA:1,_ZN79BoundaryTest_Multiply_NegativeMaxTimesTwo_ShouldOverflowToNegativeInfinity_Test8TestBodyEv
FNDA:1,_ZN79BoundaryTest_Multiply_NegativeMaxTimesTwo_ShouldOverflowToNegativeInfinity_TestC2Ev
FNDA:1,_ZN79BoundaryTest_Multiply_NegativeMaxTimesTwo_ShouldOverflowToNegativeInfinity_TestD0Ev
FNDA:1,_ZN79BoundaryTest_Multiply_NegativeMaxTimesTwo_ShouldOverflowToNegativeInfinity_TestD2Ev
FNDA:1,_ZN65BoundaryTest_Divide_NegativeMaxByTwo_ShouldBeHalfNegativeMax_Test8TestBodyEv
FNDA:1,_ZN65BoundaryTest_Divide_NegativeMaxByTwo_ShouldBeHalfNegativeMax_TestC2Ev
FNDA:1,_ZN65BoundaryTest_Divide_NegativeMaxByTwo_ShouldBeHalfNegativeMax_TestD0Ev
FNDA:1,_ZN65BoundaryTest_Divide_NegativeMaxByTwo_ShouldBeHalfNegativeMax_TestD2Ev
FNDA:1,_ZN54BoundaryTest_Multiply_MinAndHalf_ShouldBePositive_Test8TestBodyEv
FNDA:1,_ZN54BoundaryTest_Multiply_MinAndHalf_ShouldBePositive_TestC2Ev
FNDA:1,_ZN54BoundaryTest_Multiply_MinAndHalf_ShouldBePositive_TestD0Ev
FNDA:1,_ZN54BoundaryTest_Multiply_MinAndHalf_ShouldBePositive_TestD2Ev
FNDA:1,_ZN58BoundaryTest_Add_MinAndEpsilon_ShouldBeGreaterThanMin_Test8TestBodyEv
FNDA:1,_ZN58BoundaryTest_Add_MinAndEpsilon_ShouldBeGreaterThanMin_TestC2Ev
FNDA:1,_ZN58BoundaryTest_Add_MinAndEpsilon_ShouldBeGreaterThanMin_TestD0Ev
FNDA:1,_ZN58BoundaryTest_Add_MinAndEpsilon_ShouldBeGreaterThanMin_TestD2Ev
FNF:46
FNH:46
DA:19,11
DA:20,11
DA:21,11
DA:22,11
DA:24,11
DA:25,11
DA:26,11
DA:27,11
DA:33,4
DA:34,1
DA:35,1
DA:36,1
DA:38,4
DA:39,1
DA:40,1
DA:41,1
DA:43,4
DA:44,1
DA:45,1
DA:46,1
DA:48,4
DA:49,1
DA:50,1
DA:51,1
DA:53,4
DA:54,1
DA:55,1
DA:56,1
DA:59,4
DA:60,1
DA:61,1
DA:62,1
DA:63,1
DA:65,4
DA:66,1
DA:67,1
DA:68,1
DA:70,4
DA:71,1
DA:72,1
DA:73,1
DA:74,1
DA:76,4
DA:77,1
DA:78,1
DA:79,1
DA:83,4
DA:84,1
DA:85,1
DA:86,1
DA:88,4
DA:89,1
DA:90,1
DA:91,1
LF:54
LH:54
end_of_record
TN:
SF:/home/shasdor/CalcGTestHomeTask/CalcGTest/tests/HistoryTests.cpp
FN:15,15,_ZN42HistoryTests_AddAndGetSingleOperation_Test8TestBodyEv
FN:15,15,_ZN42HistoryTests_AddAndGetSingleOperation_TestC2Ev
FN:15,15,_ZN42HistoryTests_AddAndGetSingleOperation_TestD0Ev
FN:15,15,_ZN42HistoryTests_AddAndGetSingleOperation_TestD2Ev
FN:22,22,_ZN43HistoryTests_GetLastMultipleOperations_Test8TestBodyEv
FN:22,22,_ZN43HistoryTests_GetLastMultipleOperations_TestC2Ev
FN:22,22,_ZN43HistoryTests_GetLastMultipleOperations_TestD0Ev
FN:22,22,_ZN43HistoryTests_GetLastMultipleOperations_TestD2Ev
FN:32,32,_ZN39HistoryTests_GetLastMoreThanStored_Test8TestBodyEv
FN:32,32,_ZN39HistoryTests_GetLastMoreThanStored_TestC2Ev
FN:32,32,_ZN39HistoryTests_GetLastMoreThanStored_TestD0Ev
FN:32,32,_ZN39HistoryTests_GetLastMoreThanStored_TestD2Ev
FN:39,39,_ZN44HistoryTests_GetLastOperationsZeroCount_Test8TestBodyEv
FN:39,39,_ZN44HistoryTests_GetLastOperationsZeroCount_TestC2Ev
FN:39,39,_ZN44HistoryTests_GetLastOperationsZeroCount_TestD0Ev
FN:39,39,_ZN44HistoryTests_GetLastOperationsZeroCount_TestD2Ev
FN:47,47,_ZN42HistoryTests_EmptyHistoryReturnsEmpty_Test8TestBodyEv
FN:47,47,_ZN42HistoryTests_EmptyHistoryReturnsEmpty_TestC2Ev
FN:47,47,_ZN42HistoryTests_EmptyHistoryReturnsEmpty_TestD0Ev
FN:47,47,_ZN42HistoryTests_EmptyHistoryReturnsEmpty_TestD2Ev
FN:54,54,_ZN43HistoryTests_DISABLED_History_Overflow_Test8TestBodyEv
FN:54,54,_ZN43HistoryTests_DISABLED_History_Overflow_TestC2Ev
FN:54,54,_ZN43HistoryTests_DISABLED_History_Overflow_TestD0Ev
FN:54,54,_ZN43HistoryTests_DISABLED_History_Overflow_TestD2Ev
FNDA:1,_ZN42HistoryTests_AddAndGetSingleOperation_Test8TestBodyEv
FNDA:1,_ZN42HistoryTests_AddAndGetSingleOperation_TestC2Ev
FNDA:1,_ZN42HistoryTests_AddAndGetSingleOperation_TestD0Ev
FNDA:1,_ZN42HistoryTests_AddAndGetSingleOperation_TestD2Ev
FNDA:1,_ZN43HistoryTests_GetLastMultipleOperations_Test8TestBodyEv
FNDA:1,_ZN43HistoryTests_GetLastMultipleOperations_TestC2Ev
FNDA:1,_ZN43HistoryTests_GetLastMultipleOperations_TestD0Ev
FNDA:1,_ZN43HistoryTests_GetLastMultipleOperations_TestD2Ev
FNDA:1,_ZN39HistoryTests_GetLastMoreThanStored_Test8TestBodyEv
FNDA:1,_ZN39HistoryTests_GetLastMoreThanStored_TestC2Ev
FNDA:1,_ZN39HistoryTests_GetLastMoreThanStored_TestD0Ev
FNDA:1,_ZN39HistoryTests_GetLastMoreThanStored_TestD2Ev
FNDA:1,_ZN44HistoryTests_GetLastOperationsZeroCount_Test8TestBodyEv
FNDA:1,_ZN44HistoryTests_GetLastOperationsZeroCount_TestC2Ev
FNDA:1,_ZN44HistoryTests_GetLastOperationsZeroCount_TestD0Ev
FNDA:1,_ZN44HistoryTests_GetLastOperationsZeroCount_TestD2Ev
FNDA:1,_ZN42HistoryTests_EmptyHistoryReturnsEmpty_Test8TestBodyEv
FNDA:1,_ZN42HistoryTests_EmptyHistoryReturnsEmpty_TestC2Ev
FNDA:1,_ZN42HistoryTests_EmptyHistoryReturnsEmpty_TestD0Ev
FNDA:1,_ZN42HistoryTests_EmptyHistoryReturnsEmpty_TestD2Ev
FNDA:0,_ZN43HistoryTests_DISABLED_History_Overflow_Test8TestBodyEv
FNDA:0,_ZN43HistoryTests_DISABLED_History_Overflow_TestC2Ev
FNDA:0,_ZN43HistoryTests_DISABLED_History_Overflow_TestD0Ev
FNDA:0,_ZN43HistoryTests_DISABLED_History_Overflow_TestD2Ev
FNF:24
FNH:20
DA:15,4
DA:16,2
DA:17,1
DA:18,1
DA:19,1
DA:20,1
DA:22,4
DA:23,11
DA:24,10
DA:26,1
DA:27,1
DA:28,1
DA:29,1
DA:30,1
DA:32,4
DA:33,2
DA:34,1
DA:35,1
DA:36,1
DA:37,1
DA:39,4
DA:40,4
DA:41,3
DA:43,1
DA:44,1
DA:45,1
DA:47,4
DA:48,1
DA:49,1
DA:50,1
DA:54,0
DA:55,0
DA:56,0
DA:59,0
DA:60,0
DA:61,0
LF:36
LH:30
end_of_record
TN:
SF:/home/shasdor/CalcGTestHomeTask/CalcGTest/tests/Mocks/IHistoryMock.h
FN:11,11,_ZN12IHistoryMock14gmock_AddEntryERKN7testing7MatcherIRKNSt7__cxx1112basic_stringIcSt11char_traitsIcESaIcEEEEE
FN:11,11,_ZN12IHistoryMock8AddEntryERKNSt7__cxx1112basic_stringIcSt11char_traitsIcESaIcEEE
FN:12,12,_ZNK12IHistoryMock17GetLastOperationsB5cxx11Em
FN:12,12,_ZNK12IHistoryMock23gmock_GetLastOperationsB5cxx11ERKN7testing7MatcherImEE
FNDA:5,_ZN12IHistoryMock14gmock_AddEntryERKN7testing7MatcherIRKNSt7__cxx1112basic_stringIcSt11char_traitsIcESaIcEEEEE
FNDA:5,_ZN12IHistoryMock8AddEntryERKNSt7__cxx1112basic_stringIcSt11char_traitsIcESaIcEEE
FNDA:1,_ZNK12IHistoryMock17GetLastOperationsB5cxx11Em
FNDA:1,_ZNK12IHistoryMock23gmock_GetLastOperationsB5cxx11ERKN7testing7MatcherImEE
FNF:4
FNH:4
DA:11,10
DA:12,2
LF:2
LH:2
end_of_record
TN:
SF:/usr/include/c++/13/bits/alloc_traits.h
FNF:0
FNH:0
DA:482,335
DA:517,335
DA:538,140
DA:542,140
DA:562,107
DA:574,611
DA:588,35
DA:661,2
DA:675,2
DA:792,6
DA:948,572
DA:949,572
LF:12
LH:12
end_of_record
TN:
SF:/usr/include/c++/13/bits/allocated_ptr.h
FN:53,55,_ZNSt15__allocated_ptrISaISt23_Sp_counted_ptr_inplaceIN7testing10OnceActionIFSt6vectorINSt7__cxx1112basic_stringIcSt11char_traitsIcESaIcEEESaIS9_EEmEE23IgnoreIncomingArgumentsINS1_8internal12ReturnActionISB_E4ImplISB_EEEESaIvELN9__gnu_cxx12_Lock_policyE2EEEEC2ERSP_PSO_
FN:53,55,_ZNSt15__allocated_ptrISaISt23_Sp_counted_ptr_inplaceIN7testing10OnceActionIFSt6vectorINSt7__cxx1112basic_stringIcSt11char_traitsIcESaIcEEESaIS9_EEmEEESaIvELN9__gnu_cxx12_Lock_policyE2EEEEC2ERSI_PSH_
FN:71,75,_ZNSt15__allocated_ptrISaISt23_Sp_counted_ptr_inplaceIN7testing10OnceActionIFSt6vectorINSt7__cxx1112basic_stringIcSt11char_traitsIcESaIcEEESaIS9_EEmEE23IgnoreIncomingArgumentsINS1_8internal12ReturnActionISB_E4ImplISB_EEEESaIvELN9__gnu_cxx12_Lock_policyE2EEEED2Ev
FN:71,75,_ZNSt15__allocated_ptrISaISt23_Sp_counted_ptr_inplaceIN7testing10OnceActionIFSt6vectorINSt7__cxx1112basic_stringIcSt11char_traitsIcESaIcEEESaIS9_EEmEEESaIvELN9__gnu_cxx12_Lock_policyE2EEEED2Ev
FN:79,83,_ZNSt15__allocated_ptrISaISt23_Sp_counted_ptr_inplaceIN7testing10OnceActionIFSt6vectorINSt7__cxx1112basic_stringIcSt11char_traitsIcESaIcEEESaIS9_EEmEE23IgnoreIncomingArgumentsINS1_8internal12ReturnActionISB_E4ImplISB_EEEESaIvELN9__gnu_cxx12_Lock_policyE2EEEEaSEDn
FN:79,83,_ZNSt15__allocated_ptrISaISt23_Sp_counted_ptr_inplaceIN7testing10OnceActionIFSt6vectorINSt7__cxx1112basic_stringIcSt11char_traitsIcESaIcEEESaIS9_EEmEEESaIvELN9__gnu_cxx12_Lock_policyE2EEEEaSEDn
FN:86,86,_ZNSt15__allocated_ptrISaISt23_Sp_counted_ptr_inplaceIN7testing10OnceActionIFSt6vectorINSt7__cxx1112basic_stringIcSt11char_traitsIcESaIcEEESaIS9_EEmEE23IgnoreIncomingArgumentsINS1_8internal12ReturnActionISB_E4ImplISB_EEEESaIvELN9__gnu_cxx12_Lock_policyE2EEEE3getEv
FN:86,86,_ZNSt15__allocated_ptrISaISt23_Sp_counted_ptr_inplaceIN7testing10OnceActionIFSt6vectorINSt7__cxx1112basic_stringIcSt11char_traitsIcESaIcEEESaIS9_EEmEEESaIvELN9__gnu_cxx12_Lock_policyE2EEEE3getEv
FN:96,99,_ZSt18__allocate_guardedISaISt23_Sp_counted_ptr_inplaceIN7testing10OnceActionIFSt6vectorINSt7__cxx1112basic_stringIcSt11char_traitsIcESaIcEEESaIS9_EEmEE23IgnoreIncomingArgumentsINS1_8internal12ReturnActionISB_E4ImplISB_EEEESaIvELN9__gnu_cxx12_Lock_policyE2EEEESt15__allocated_ptrIT_ERSR_
FN:96,99,_ZSt18__allocate_guardedISaISt23_Sp_counted_ptr_inplaceIN7testing10OnceActionIFSt6vectorINSt7__cxx1112basic_stringIcSt11char_traitsIcESaIcEEESaIS9_EEmEEESaIvELN9__gnu_cxx12_Lock_policyE2EEEESt15__allocated_ptrIT_ERSK_
FNDA:2,_ZNSt15__allocated_ptrISaISt23_Sp_counted_ptr_inplaceIN7testing10OnceActionIFSt6vectorINSt7__cxx1112basic_stringIcSt11char_traitsIcESaIcEEESaIS9_EEmEE23IgnoreIncomingArgumentsINS1_8internal12ReturnActionISB_E4ImplISB_EEEESaIvELN9__gnu_cxx12_Lock_policyE2EEEEC2ERSP_PSO_
FNDA:2,_ZNSt15__allocated_ptrISaISt23_Sp_counted_ptr_inplaceIN7testing10OnceActionIFSt6vectorINSt7__cxx1112basic_stringIcSt11char_traitsIcESaIcEEESaIS9_EEmEEESaIvELN9__gnu_cxx12_Lock_policyE2EEEEC2ERSI_PSH_
FNDA:2,_ZNSt15__allocated_ptrISaISt23_Sp_counted_ptr_inplaceIN7testing10OnceActionIFSt6vectorINSt7__cxx1112basic_stringIcSt11char_traitsIcESaIcEEESaIS9_EEmEE23IgnoreIncomingArgumentsINS1_8internal12ReturnActionISB_E4ImplISB_EEEESaIvELN9__gnu_cxx12_Lock_policyE2EEEED2Ev
FNDA:2,_ZNSt15__allocated_ptrISaISt23_Sp_counted_ptr_inplaceIN7testing10OnceActionIFSt6vectorINSt7__cxx1112basic_stringIcSt11char_traitsIcESaIcEEESaIS9_EEmEEESaIvELN9__gnu_cxx12_Lock_policyE2EEEED2Ev
FNDA:1,_ZNSt15__allocated_ptrISaISt23_Sp_counted_ptr_inplaceIN7testing10OnceActionIFSt6vectorINSt7__cxx1112basic_stringIcSt11char_traitsIcESaIcEEESaIS9_EEmEE23IgnoreIncomingArgumentsINS1_8internal12ReturnActionISB_E4ImplISB_EEEESaIvELN9__gnu_cxx12_Lock_policyE2EEEEaSEDn
FNDA:1,_ZNSt15__allocated_ptrISaISt23_Sp_counted_ptr_inplaceIN7testing10OnceActionIFSt6vectorINSt7__cxx1112basic_stringIcSt11char_traitsIcESaIcEEESaIS9_EEmEEESaIvELN9__gnu_cxx12_Lock_policyE2EEEEaSEDn
FNDA:1,_ZNSt15__allocated_ptrISaISt23_Sp_counted_ptr_inplaceIN7testing10OnceActionIFSt6vectorINSt7__cxx1112basic_stringIcSt11char_traitsIcESaIcEEESaIS9_EEmEE23IgnoreIncomingArgumentsINS1_8internal12ReturnActionISB_E4ImplISB_EEEESaIvELN9__gnu_cxx12_Lock_policyE2EEEE3getEv
FNDA:1,_ZNSt15__allocated_ptrISaISt23_Sp_counted_ptr_inplaceIN7testing10OnceActionIFSt6vectorINSt7__cxx1112basic_stringIcSt11char_traitsIcESaIcEEESaIS9_EEmEEESaIvELN9__gnu_cxx12_Lock_policyE2EEEE3getEv
FNDA:1,_ZSt18__allocate_guardedISaISt23_Sp_counted_ptr_inplaceIN7testing10OnceActionIFSt6vectorINSt7__cxx1112basic_stringIcSt11char_traitsIcESaIcEEESaIS9_EEmEE23IgnoreIncomingArgumentsINS1_8internal12ReturnActionISB_E4ImplISB_EEEESaIvELN9__gnu_cxx12_Lock_policyE2EEEESt15__allocated_ptrIT_ERSR_
FNDA:1,_ZSt18__allocate_guardedISaISt23_Sp_counted_ptr_inplaceIN7testing10OnceActionIFSt6vectorINSt7__cxx1112basic_stringIcSt11char_traitsIcESaIcEEESaIS9_EEmEEESaIvELN9__gnu_cxx12_Lock_policyE2EEEESt15__allocated_ptrIT_ERSK_
FNF:10
FNH:10
DA:53,4
DA:54,4
DA:55,4
DA:71,4
DA:73,4
DA:74,2
DA:75,4
DA:79,2
DA:81,2
DA:82,2
DA:86,2
DA:96,2
DA:98,2
LF:13
LH:13
end_of_record
TN:
SF:/usr/include/c++/13/bits/allocator.h
FNF:0
FNH:0
DA:163,522
DA:168,138
DA:178,4
DA:184,121
DA:217,0
LF:5
LH:4
end_of_record
TN:
SF:/usr/include/c++/13/bits/atomic_base.h
FNF:0
FNH:0
DA:635,12
DA:645,16
LF:2
LH:2
end_of_record
TN:
SF:/usr/include/c++/13/bits/basic_string.h
FN:3528,3541,_ZSt12__str_concatINSt7__cxx1112basic_stringIcSt11char_traitsIcESaIcEEEET_PKNS6_10value_typeENS6_9size_typeES9_SA_RKNS6_14allocator_typeE
FN:3607,3615,_ZStplIcSt11char_traitsIcESaIcEENSt7__cxx1112basic_stringIT_T0_T1_EERKS8_PKS5_
FN:3651,3669,_ZStplIcSt11char_traitsIcESaIcEENSt7__cxx1112basic_stringIT_T0_T1_EEOS8_S9_
FN:3674,3676,_ZStplIcSt11char_traitsIcESaIcEENSt7__cxx1112basic_stringIT_T0_T1_EEPKS5_OS8_
FN:3688,3690,_ZStplIcSt11char_traitsIcESaIcEENSt7__cxx1112basic_stringIT_T0_T1_EEOS8_PKS5_
FN:3727,3732,_ZSteqIcSt11char_traitsIcESaIcEEbRKNSt7__cxx1112basic_stringIT_T0_T1_EEPKS5_
FN:4162,4173,_ZNSt7__cxx119to_stringEi
FN:641,650,_ZNSt7__cxx1112basic_stringIcSt11char_traitsIcESaIcEEC2IS3_EEPKcRKS3_
FN:664,666,_ZNSt7__cxx1112basic_stringIcSt11char_traitsIcESaIcEEC2IS3_EEmcRKS3_
FNDA:35,_ZSt12__str_concatINSt7__cxx1112basic_stringIcSt11char_traitsIcESaIcEEEET_PKNS6_10value_typeENS6_9size_typeES9_SA_RKNS6_14allocator_typeE
FNDA:35,_ZStplIcSt11char_traitsIcESaIcEENSt7__cxx1112basic_stringIT_T0_T1_EERKS8_PKS5_
FNDA:6,_ZStplIcSt11char_traitsIcESaIcEENSt7__cxx1112basic_stringIT_T0_T1_EEOS8_S9_
FNDA:13,_ZStplIcSt11char_traitsIcESaIcEENSt7__cxx1112basic_stringIT_T0_T1_EEPKS5_OS8_
FNDA:162,_ZStplIcSt11char_traitsIcESaIcEENSt7__cxx1112basic_stringIT_T0_T1_EEOS8_PKS5_
FNDA:54,_ZSteqIcSt11char_traitsIcESaIcEEbRKNSt7__cxx1112basic_stringIT_T0_T1_EEPKS5_
FNDA:13,_ZNSt7__cxx119to_stringEi
FNDA:1183,_ZNSt7__cxx1112basic_stringIcSt11char_traitsIcESaIcEEC2IS3_EEPKcRKS3_
FNDA:13,_ZNSt7__cxx1112basic_stringIcSt11char_traitsIcESaIcEEC2IS3_EEmcRKS3_
FNF:9
FNH:9
DA:355,814
DA:641,1183
DA:642,1183
DA:645,1183
DA:646,0
DA:648,1183
DA:649,1183
DA:650,1183
DA:664,13
DA:665,13
DA:666,13
DA:3528,35
DA:3536,35
DA:3537,35
DA:3538,35
DA:3539,35
DA:3540,35
DA:3541,0
DA:3607,35
DA:3614,70
DA:3651,6
DA:3656,6
DA:3658,6
DA:3661,6
DA:3664,6
DA:3665,6
DA:3666,0
DA:3668,6
DA:3674,13
DA:3676,13
DA:3688,162
DA:3690,162
DA:3727,54
DA:3730,54
DA:3731,54
DA:4162,13
DA:4167,13
DA:4168,13
DA:4169,13
DA:4170,13
DA:4171,13
DA:4172,13
LF:42
LH:39
end_of_record
TN:
SF:/usr/include/c++/13/bits/basic_string.tcc
FN:221,252,_ZNSt7__cxx1112basic_stringIcSt11char_traitsIcESaIcEE12_M_constructIPKcEEvT_S8_St20forward_iterator_tag
FN:221,252,_ZNSt7__cxx1112basic_stringIcSt11char_traitsIcESaIcEE12_M_constructIPcEEvT_S7_St20forward_iterator_tag
FN:239,239,_ZZNSt7__cxx1112basic_stringIcSt11char_traitsIcESaIcEE12_M_constructIPKcEEvT_S8_St20forward_iterator_tagEN6_GuardC2EPS4_
FN:239,239,_ZZNSt7__cxx1112basic_stringIcSt11char_traitsIcESaIcEE12_M_constructIPcEEvT_S7_St20forward_iterator_tagEN6_GuardC2EPS4_
FN:242,242,_ZZNSt7__cxx1112basic_stringIcSt11char_traitsIcESaIcEE12_M_constructIPKcEEvT_S8_St20forward_iterator_tagEN6_GuardD2Ev
FN:242,242,_ZZNSt7__cxx1112basic_stringIcSt11char_traitsIcESaIcEE12_M_constructIPcEEvT_S7_St20forward_iterator_tagEN6_GuardD2Ev
FNDA:1353,_ZNSt7__cxx1112basic_stringIcSt11char_traitsIcESaIcEE12_M_constructIPKcEEvT_S8_St20forward_iterator_tag
FNDA:0,_ZNSt7__cxx1112basic_stringIcSt11char_traitsIcESaIcEE12_M_constructIPcEEvT_S7_St20forward_iterator_tag
FNDA:1353,_ZZNSt7__cxx1112basic_stringIcSt11char_traitsIcESaIcEE12_M_constructIPKcEEvT_S8_St20forward_iterator_tagEN6_GuardC2EPS4_
FNDA:0,_ZZNSt7__cxx1112basic_stringIcSt11char_traitsIcESaIcEE12_M_constructIPcEEvT_S7_St20forward_iterator_tagEN6_GuardC2EPS4_
FNDA:1353,_ZZNSt7__cxx1112basic_stringIcSt11char_traitsIcESaIcEE12_M_constructIPKcEEvT_S8_St20forward_iterator_tagEN6_GuardD2Ev
FNDA:0,_ZZNSt7__cxx1112basic_stringIcSt11char_traitsIcESaIcEE12_M_constructIPcEEvT_S7_St20forward_iterator_tagEN6_GuardD2Ev
FNF:6
FNH:3
DA:221,1353
DA:225,1353
DA:227,1353
DA:229,539
DA:230,539
DA:239,1353
DA:242,1353
DA:245,1353
DA:247,1353
DA:249,1353
DA:251,1353
DA:252,1353
LF:12
LH:12
end_of_record
TN:
SF:/usr/include/c++/13/bits/char_traits.h
FN:136,137,_ZN9__gnu_cxx11char_traitsIcE2eqERKcS3_
FN:199,206,_ZN9__gnu_cxx11char_traitsIcE6lengthEPKc
FN:366,371,_ZNSt11char_traitsIcE2ltERKcS2_
FN:374,390,_ZNSt11char_traitsIcE7compareEPKcS2_m
FN:393,400,_ZNSt11char_traitsIcE6lengthEPKc
FN:427,436,_ZNSt11char_traitsIcE4copyEPcPKcm
FNDA:0,_ZN9__gnu_cxx11char_traitsIcE2eqERKcS3_
FNDA:0,_ZN9__gnu_cxx11char_traitsIcE6lengthEPKc
FNDA:0,_ZNSt11char_traitsIcE2ltERKcS2_
FNDA:68,_ZNSt11char_traitsIcE7compareEPKcS2_m
FNDA:1547,_ZNSt11char_traitsIcE6lengthEPKc
FNDA:0,_ZNSt11char_traitsIcE4copyEPcPKcm
FNF:6
FNH:2
DA:136,0
DA:137,0
DA:199,0
DA:202,0
DA:203,0
DA:204,0
DA:205,0
DA:366,0
DA:369,0
DA:370,0
DA:374,68
DA:376,68
DA:377,0
DA:379,68
DA:381,0
DA:382,0
DA:383,0
DA:384,0
DA:385,0
DA:386,0
DA:389,68
DA:393,1547
DA:396,1547
DA:397,0
DA:399,1547
DA:427,0
DA:429,0
DA:430,0
DA:435,0
LF:29
LH:7
end_of_record
TN:
SF:/usr/include/c++/13/bits/charconv.h
FN:55,74,_ZNSt8__detail14__to_chars_lenIjEEjT_i
FN:81,110,_ZNSt8__detail18__to_chars_10_implIjEEvPcjT_
FNDA:13,_ZNSt8__detail14__to_chars_lenIjEEjT_i
FNDA:13,_ZNSt8__detail18__to_chars_10_implIjEEvPcjT_
FNF:2
FNH:2
DA:55,13
DA:61,13
DA:62,13
DA:63,13
DA:64,13
DA:67,13
DA:68,0
DA:69,0
DA:70,0
DA:71,0
DA:72,0
DA:81,13
DA:87,13
DA:93,13
DA:94,13
DA:96,0
DA:97,0
DA:98,0
DA:99,0
DA:100,0
DA:102,13
DA:104,0
DA:105,0
DA:106,0
DA:109,13
DA:110,13
LF:26
LH:13
end_of_record
TN:
SF:/usr/include/c++/13/bits/invoke.h
FN:104,117,_ZSt10__invoke_rISt6vectorINSt7__cxx1112basic_stringIcSt11char_traitsIcESaIcEEESaIS6_EERN7testing10OnceActionIFS8_mEE18StdFunctionAdaptorINSC_23IgnoreIncomingArgumentsINS9_8internal12ReturnActionIS8_E4ImplIS8_EEEEEEJmEENSt9enable_ifIX16is_invocable_r_vIT_T0_DpT1_EESO_E4typeEOSP_DpOSQ_
FN:104,117,_ZSt10__invoke_rISt6vectorINSt7__cxx1112basic_stringIcSt11char_traitsIcESaIcEEESaIS6_EERN7testing8internal16TypedExpectationIFS8_mEE13ActionAdaptorEJmEENSt9enable_ifIX16is_invocable_r_vIT_T0_DpT1_EESH_E4typeEOSI_DpOSJ_
FN:60,61,_ZSt13__invoke_implISt6vectorINSt7__cxx1112basic_stringIcSt11char_traitsIcESaIcEEESaIS6_EERN7testing10OnceActionIFS8_mEE18StdFunctionAdaptorINSC_23IgnoreIncomingArgumentsINS9_8internal12ReturnActionIS8_E4ImplIS8_EEEEEEJmEET_St14__invoke_otherOT0_DpOT1_
FN:60,61,_ZSt13__invoke_implISt6vectorINSt7__cxx1112basic_stringIcSt11char_traitsIcESaIcEEESaIS6_EERN7testing8internal16TypedExpectationIFS8_mEE13ActionAdaptorEJmEET_St14__invoke_otherOT0_DpOT1_
FNDA:1,_ZSt10__invoke_rISt6vectorINSt7__cxx1112basic_stringIcSt11char_traitsIcESaIcEEESaIS6_EERN7testing10OnceActionIFS8_mEE18StdFunctionAdaptorINSC_23IgnoreIncomingArgumentsINS9_8internal12ReturnActionIS8_E4ImplIS8_EEEEEEJmEENSt9enable_ifIX16is_invocable_r_vIT_T0_DpT1_EESO_E4typeEOSP_DpOSQ_
FNDA:1,_ZSt10__invoke_rISt6vectorINSt7__cxx1112basic_stringIcSt11char_traitsIcESaIcEEESaIS6_EERN7testing8internal16TypedExpectationIFS8_mEE13ActionAdaptorEJmEENSt9enable_ifIX16is_invocable_r_vIT_T0_DpT1_EESH_E4typeEOSI_DpOSJ_
FNDA:1,_ZSt13__invoke_implISt6vectorINSt7__cxx1112basic_stringIcSt11char_traitsIcESaIcEEESaIS6_EERN7testing10OnceActionIFS8_mEE18StdFunctionAdaptorINSC_23IgnoreIncomingArgumentsINS9_8internal12ReturnActionIS8_E4ImplIS8_EEEEEEJmEET_St14__invoke_otherOT0_DpOT1_
FNDA:1,_ZSt13__invoke_implISt6vectorINSt7__cxx1112basic_stringIcSt11char_traitsIcESaIcEEESaIS6_EERN7testing8internal16TypedExpectationIFS8_mEE13ActionAdaptorEJmEET_St14__invoke_otherOT0_DpOT1_
FNF:4
FNH:4
DA:60,2
DA:61,2
DA:104,2
DA:116,2
LF:4
LH:4
end_of_record
TN:
SF:/usr/include/c++/13/bits/ios_base.h
FN:732,733,_ZNKSt8ios_base9precisionEv
FN:741,746,_ZNSt8ios_base9precisionEl
FNDA:0,_ZNKSt8ios_base9precisionEv
FNDA:0,_ZNSt8ios_base9precisionEl
FNF:2
FNH:0
DA:732,0
DA:733,0
DA:741,0
DA:743,0
DA:744,0
DA:745,0
LF:6
LH:0
end_of_record
TN:
SF:/usr/include/c++/13/bits/move.h
FN:189,200,_ZSt4swapIPFSt6vectorINSt7__cxx1112basic_stringIcSt11char_traitsIcESaIcEEESaIS6_EERKSt9_Any_dataOmEENSt9enable_ifIXsrSt6__and_IJSt6__not_ISt15__is_tuple_likeIT_EESt21is_move_constructibleISJ_ESt18is_move_assignableISJ_EEE5valueEvE4typeERSJ_ST_
FN:189,200,_ZSt4swapIPFbRSt9_Any_dataRKS0_St18_Manager_operationEENSt9enable_ifIXsrSt6__and_IJSt6__not_ISt15__is_tuple_likeIT_EESt21is_move_constructibleISB_ESt18is_move_assignableISB_EEE5valueEvE4typeERSB_SL_
FN:189,200,_ZSt4swapISt9_Any_dataENSt9enable_ifIXsrSt6__and_IJSt6__not_ISt15__is_tuple_likeIT_EESt21is_move_constructibleIS5_ESt18is_move_assignableIS5_EEE5valueEvE4typeERS5_SF_
FN:51,52,_ZSt11__addressofINSt7__cxx1112basic_stringIcSt11char_traitsIcESaIcEEEEPT_RS6_
FN:51,52,_ZSt11__addressofISaISt23_Sp_counted_ptr_inplaceIN7testing10OnceActionIFSt6vectorINSt7__cxx1112basic_stringIcSt11char_traitsIcESaIcEEESaIS9_EEmEE23IgnoreIncomingArgumentsINS1_8internal12ReturnActionISB_E4ImplISB_EEEESaIvELN9__gnu_cxx12_Lock_policyE2EEEEPT_RSQ_
FN:51,52,_ZSt11__addressofISaISt23_Sp_counted_ptr_inplaceIN7testing10OnceActionIFSt6vectorINSt7__cxx1112basic_stringIcSt11char_traitsIcESaIcEEESaIS9_EEmEEESaIvELN9__gnu_cxx12_Lock_policyE2EEEEPT_RSJ_
FN:51,52,_ZSt11__addressofISt10shared_ptrIN7testing8internal15ExpectationBaseEEEPT_RS5_
FN:70,71,_ZSt7forwardIN7testing10OnceActionIFSt6vectorINSt7__cxx1112basic_stringIcSt11char_traitsIcESaIcEEESaIS8_EEmEE18StdFunctionAdaptorINSC_23IgnoreIncomingArgumentsINS0_8internal12ReturnActionISA_E4ImplISA_EEEEEEEOT_RNSt16remove_referenceISM_E4typeE
FN:70,71,_ZSt7forwardIN7testing10OnceActionIFSt6vectorINSt7__cxx1112basic_stringIcSt11char_traitsIcESaIcEEESaIS8_EEmEE23IgnoreIncomingArgumentsINS0_8internal12ReturnActionISA_E4ImplISA_EEEEEOT_RNSt16remove_referenceISK_E4typeE
FN:70,71,_ZSt7forwardIN7testing10OnceActionIFSt6vectorINSt7__cxx1112basic_stringIcSt11char_traitsIcESaIcEEESaIS8_EEmEEEEOT_RNSt16remove_referenceISD_E4typeE
FN:70,71,_ZSt7forwardIN7testing7MatcherIRKNSt7__cxx1112basic_stringIcSt11char_traitsIcESaIcEEEEEEOT_RNSt16remove_referenceISB_E4typeE
FN:70,71,_ZSt7forwardIN7testing7MatcherImEEEOT_RNSt16remove_referenceIS3_E4typeE
FN:70,71,_ZSt7forwardIN7testing8internal12ReturnActionISt6vectorINSt7__cxx1112basic_stringIcSt11char_traitsIcESaIcEEESaIS9_EEE4ImplISB_EEEOT_RNSt16remove_referenceISF_E4typeE
FN:70,71,_ZSt7forwardIN7testing8internal16TypedExpectationIFSt6vectorINSt7__cxx1112basic_stringIcSt11char_traitsIcESaIcEEESaIS9_EEmEE13ActionAdaptorEEOT_RNSt16remove_referenceISF_E4typeE
FN:70,71,_ZSt7forwardIN7testing8internal9EqMatcherImEEEOT_RNSt16remove_referenceIS4_E4typeE
FN:70,71,_ZSt7forwardINSt7__cxx1112basic_stringIcSt11char_traitsIcESaIcEEEEOT_RNSt16remove_referenceIS6_E4typeE
FN:70,71,_ZSt7forwardIPKN7testing8internal11MatcherBaseIRKNSt7__cxx1112basic_stringIcSt11char_traitsIcESaIcEEEEEEOT_RNSt16remove_referenceISE_E4typeE
FN:70,71,_ZSt7forwardIPKN7testing8internal11MatcherBaseIRKSt5tupleIJRKNSt7__cxx1112basic_stringIcSt11char_traitsIcESaIcEEEEEEEEOT_RNSt16remove_referenceISI_E4typeE
FN:70,71,_ZSt7forwardIPKN7testing8internal11MatcherBaseIRKSt5tupleIJmEEEEEOT_RNSt16remove_referenceISA_E4typeE
FN:70,71,_ZSt7forwardIPKN7testing8internal11MatcherBaseImEEEOT_RNSt16remove_referenceIS6_E4typeE
FN:70,71,_ZSt7forwardIPKN7testing8internal15AnythingMatcherEEOT_RNSt16remove_referenceIS5_E4typeE
FN:70,71,_ZSt7forwardIPKN7testing8internal9EqMatcherImEEEOT_RNSt16remove_referenceIS6_E4typeE
FN:70,71,_ZSt7forwardIPKvEOT_RNSt16remove_referenceIS2_E4typeE
FN:70,71,_ZSt7forwardIRKN7testing10OnceActionIFSt6vectorINSt7__cxx1112basic_stringIcSt11char_traitsIcESaIcEEESaIS8_EEmEE18StdFunctionAdaptorINSC_23IgnoreIncomingArgumentsINS0_8internal12ReturnActionISA_E4ImplISA_EEEEEEEOT_RNSt16remove_referenceISO_E4typeE
FN:70,71,_ZSt7forwardIRKN7testing8internal15AnythingMatcherEEOT_RNSt16remove_referenceIS5_E4typeE
FN:70,71,_ZSt7forwardIRKN7testing8internal16TypedExpectationIFSt6vectorINSt7__cxx1112basic_stringIcSt11char_traitsIcESaIcEEESaIS9_EEmEE13ActionAdaptorEEOT_RNSt16remove_referenceISH_E4typeE
FN:70,71,_ZSt7forwardIRKNSt7__cxx1112basic_stringIcSt11char_traitsIcESaIcEEEEOT_RNSt16remove_referenceIS8_E4typeE
FN:70,71,_ZSt7forwardIRKSt10shared_ptrIN7testing8internal15ExpectationBaseEEEOT_RNSt16remove_referenceIS7_E4typeE
FN:70,71,_ZSt7forwardIRKSt8functionIFSt6vectorINSt7__cxx1112basic_stringIcSt11char_traitsIcESaIcEEESaIS7_EEmEEEOT_RNSt16remove_referenceISE_E4typeE
FN:70,71,_ZSt7forwardIRKSt8functionIFvRKNSt7__cxx1112basic_stringIcSt11char_traitsIcESaIcEEEEEEOT_RNSt16remove_referenceISD_E4typeE
FN:70,71,_ZSt7forwardIRKmEOT_RNSt16remove_referenceIS2_E4typeE
FN:70,71,_ZSt7forwardIRN4calc15InMemoryHistoryEEOT_RNSt16remove_referenceIS3_E4typeE
FN:70,71,_ZSt7forwardIRN7testing10OnceActionIFSt6vectorINSt7__cxx1112basic_stringIcSt11char_traitsIcESaIcEEESaIS8_EEmEE18StdFunctionAdaptorINSC_23IgnoreIncomingArgumentsINS0_8internal12ReturnActionISA_E4ImplISA_EEEEEEEOT_RNSt16remove_referenceISN_E4typeE
FN:70,71,_ZSt7forwardIRN7testing8internal16TypedExpectationIFSt6vectorINSt7__cxx1112basic_stringIcSt11char_traitsIcESaIcEEESaIS9_EEmEE13ActionAdaptorEEOT_RNSt16remove_referenceISG_E4typeE
FN:70,71,_ZSt7forwardISt10shared_ptrIN7testing8internal15ExpectationBaseEEEOT_RNSt16remove_referenceIS5_E4typeE
FN:70,71,_ZSt7forwardISt14default_deleteIN4calc15InMemoryHistoryEEEOT_RNSt16remove_referenceIS4_E4typeE
FN:70,71,_ZSt7forwardISt14default_deleteIN4calc16SimpleCalculatorEEEOT_RNSt16remove_referenceIS4_E4typeE
FN:70,71,_ZSt7forwardISt14default_deleteINSt7__cxx1112basic_stringIcSt11char_traitsIcESaIcEEEEEOT_RNSt16remove_referenceIS8_E4typeE
FN:70,71,_ZSt7forwardISt5tupleIJRKNSt7__cxx1112basic_stringIcSt11char_traitsIcESaIcEEEEEEOT_RNSt16remove_referenceISA_E4typeE
FN:70,71,_ZSt7forwardISt5tupleIJmEEEOT_RNSt16remove_referenceIS2_E4typeE
FN:70,71,_ZSt7forwardISt6vectorINSt7__cxx1112basic_stringIcSt11char_traitsIcESaIcEEESaIS6_EEEOT_RNSt16remove_referenceIS9_E4typeE
FN:70,71,_ZSt7forwardImEOT_RNSt16remove_referenceIS0_E4typeE
FN:97,98,_ZSt4moveIRN7testing10OnceActionIFSt6vectorINSt7__cxx1112basic_stringIcSt11char_traitsIcESaIcEEESaIS8_EEmEE23IgnoreIncomingArgumentsINS0_8internal12ReturnActionISA_E4ImplISA_EEEEEONSt16remove_referenceIT_E4typeEOSM_
FN:97,98,_ZSt4moveIRN7testing10OnceActionIFSt6vectorINSt7__cxx1112basic_stringIcSt11char_traitsIcESaIcEEESaIS8_EEmEEEEONSt16remove_referenceIT_E4typeEOSF_
FN:97,98,_ZSt4moveIRN7testing6ActionIFSt6vectorINSt7__cxx1112basic_stringIcSt11char_traitsIcESaIcEEESaIS8_EEmEEEEONSt16remove_referenceIT_E4typeEOSF_
FN:97,98,_ZSt4moveIRN7testing7MatcherIRKNSt7__cxx1112basic_stringIcSt11char_traitsIcESaIcEEEEEEONSt16remove_referenceIT_E4typeEOSD_
FN:97,98,_ZSt4moveIRN7testing7MatcherImEEEONSt16remove_referenceIT_E4typeEOS5_
FN:97,98,_ZSt4moveIRN7testing8internal12ReturnActionISt6vectorINSt7__cxx1112basic_stringIcSt11char_traitsIcESaIcEEESaIS9_EEE4ImplISB_EEEONSt16remove_referenceIT_E4typeEOSH_
FN:97,98,_ZSt4moveIRNSt12_Vector_baseINSt7__cxx1112basic_stringIcSt11char_traitsIcESaIcEEESaIS6_EE12_Vector_implEEONSt16remove_referenceIT_E4typeEOSC_
FN:97,98,_ZSt4moveIRNSt7__cxx1112basic_stringIcSt11char_traitsIcESaIcEEEEONSt16remove_referenceIT_E4typeEOS8_
FN:97,98,_ZSt4moveIRPFSt6vectorINSt7__cxx1112basic_stringIcSt11char_traitsIcESaIcEEESaIS6_EERKSt9_Any_dataOmEEONSt16remove_referenceIT_E4typeEOSH_
FN:97,98,_ZSt4moveIRPFbRSt9_Any_dataRKS0_St18_Manager_operationEEONSt16remove_referenceIT_E4typeEOS9_
FN:97,98,_ZSt4moveIRPKvEONSt16remove_referenceIT_E4typeEOS4_
FN:97,98,_ZSt4moveIRPN4calc15InMemoryHistoryEEONSt16remove_referenceIT_E4typeEOS5_
FN:97,98,_ZSt4moveIRPN4calc16SimpleCalculatorEEONSt16remove_referenceIT_E4typeEOS5_
FN:97,98,_ZSt4moveIRPNSt7__cxx1112basic_stringIcSt11char_traitsIcESaIcEEEEONSt16remove_referenceIT_E4typeEOS9_
FN:97,98,_ZSt4moveIRPNSt7__cxx1118basic_stringstreamIcSt11char_traitsIcESaIcEEEEONSt16remove_referenceIT_E4typeEOS9_
FN:97,98,_ZSt4moveIRSaIcEEONSt16remove_referenceIT_E4typeEOS3_
FN:97,98,_ZSt4moveIRSt10shared_ptrIN7testing10OnceActionIFSt6vectorINSt7__cxx1112basic_stringIcSt11char_traitsIcESaIcEEESaIS9_EEmEE23IgnoreIncomingArgumentsINS1_8internal12ReturnActionISB_E4ImplISB_EEEEEEONSt16remove_referenceIT_E4typeEOSO_
FN:97,98,_ZSt4moveIRSt10shared_ptrIN7testing10OnceActionIFSt6vectorINSt7__cxx1112basic_stringIcSt11char_traitsIcESaIcEEESaIS9_EEmEEEEEONSt16remove_referenceIT_E4typeEOSH_
FN:97,98,_ZSt4moveIRSt10shared_ptrIN7testing8internal15ExpectationBaseEEEONSt16remove_referenceIT_E4typeEOS7_
FN:97,98,_ZSt4moveIRSt5tupleIJRKNSt7__cxx1112basic_stringIcSt11char_traitsIcESaIcEEEEEEONSt16remove_referenceIT_E4typeEOSC_
FN:97,98,_ZSt4moveIRSt5tupleIJmEEEONSt16remove_referenceIT_E4typeEOS4_
FN:97,98,_ZSt4moveIRSt6vectorINSt7__cxx1112basic_stringIcSt11char_traitsIcESaIcEEESaIS6_EEEONSt16remove_referenceIT_E4typeEOSB_
FN:97,98,_ZSt4moveIRSt9_Any_dataEONSt16remove_referenceIT_E4typeEOS3_
FNDA:1,_ZSt4swapIPFSt6vectorINSt7__cxx1112basic_stringIcSt11char_traitsIcESaIcEEESaIS6_EERKSt9_Any_dataOmEENSt9enable_ifIXsrSt6__and_IJSt6__not_ISt15__is_tuple_likeIT_EESt21is_move_constructibleISJ_ESt18is_move_assignableISJ_EEE5valueEvE4typeERSJ_ST_
FNDA:1,_ZSt4swapIPFbRSt9_Any_dataRKS0_St18_Manager_operationEENSt9enable_ifIXsrSt6__and_IJSt6__not_ISt15__is_tuple_likeIT_EESt21is_move_constructibleISB_ESt18is_move_assignableISB_EEE5valueEvE4typeERSB_SL_
FNDA:1,_ZSt4swapISt9_Any_dataENSt9enable_ifIXsrSt6__and_IJSt6__not_ISt15__is_tuple_likeIT_EESt21is_move_constructibleIS5_ESt18is_move_assignableIS5_EEE5valueEvE4typeERS5_SF_
FNDA:860,_ZSt11__addressofINSt7__cxx1112basic_stringIcSt11char_traitsIcESaIcEEEEPT_RS6_
FNDA:2,_ZSt11__addressofISaISt23_Sp_counted_ptr_inplaceIN7testing10OnceActionIFSt6vectorINSt7__cxx1112basic_stringIcSt11char_traitsIcESaIcEEESaIS9_EEmEE23IgnoreIncomingArgumentsINS1_8internal12ReturnActionISB_E4ImplISB_EEEESaIvELN9__gnu_cxx12_Lock_policyE2EEEEPT_RSQ_
FNDA:2,_ZSt11__addressofISaISt23_Sp_counted_ptr_inplaceIN7testing10OnceActionIFSt6vectorINSt7__cxx1112basic_stringIcSt11char_traitsIcESaIcEEESaIS9_EEmEEESaIvELN9__gnu_cxx12_Lock_policyE2EEEEPT_RSJ_
FNDA:15,_ZSt11__addressofISt10shared_ptrIN7testing8internal15ExpectationBaseEEEPT_RS5_
FNDA:3,_ZSt7forwardIN7testing10OnceActionIFSt6vectorINSt7__cxx1112basic_stringIcSt11char_traitsIcESaIcEEESaIS8_EEmEE18StdFunctionAdaptorINSC_23IgnoreIncomingArgumentsINS0_8internal12ReturnActionISA_E4ImplISA_EEEEEEEOT_RNSt16remove_referenceISM_E4typeE
FNDA:9,_ZSt7forwardIN7testing10OnceActionIFSt6vectorINSt7__cxx1112basic_stringIcSt11char_traitsIcESaIcEEESaIS8_EEmEE23IgnoreIncomingArgumentsINS0_8internal12ReturnActionISA_E4ImplISA_EEEEEOT_RNSt16remove_referenceISK_E4typeE
FNDA:7,_ZSt7forwardIN7testing10OnceActionIFSt6vectorINSt7__cxx1112basic_stringIcSt11char_traitsIcESaIcEEESaIS8_EEmEEEEOT_RNSt16remove_referenceISD_E4typeE
FNDA:20,_ZSt7forwardIN7testing7MatcherIRKNSt7__cxx1112basic_stringIcSt11char_traitsIcESaIcEEEEEEOT_RNSt16remove_referenceISB_E4typeE
FNDA:4,_ZSt7forwardIN7testing7MatcherImEEEOT_RNSt16remove_referenceIS3_E4typeE
FNDA:1,_ZSt7forwardIN7testing8internal12ReturnActionISt6vectorINSt7__cxx1112basic_stringIcSt11char_traitsIcESaIcEEESaIS9_EEE4ImplISB_EEEOT_RNSt16remove_referenceISF_E4typeE
FNDA:6,_ZSt7forwardIN7testing8internal16TypedExpectationIFSt6vectorINSt7__cxx1112basic_stringIcSt11char_traitsIcESaIcEEESaIS9_EEmEE13ActionAdaptorEEOT_RNSt16remove_referenceISF_E4typeE
FNDA:3,_ZSt7forwardIN7testing8internal9EqMatcherImEEEOT_RNSt16remove_referenceIS4_E4typeE
FNDA:1540,_ZSt7forwardINSt7__cxx1112basic_stringIcSt11char_traitsIcESaIcEEEEOT_RNSt16remove_referenceIS6_E4typeE
FNDA:0,_ZSt7forwardIPKN7testing8internal11MatcherBaseIRKNSt7__cxx1112basic_stringIcSt11char_traitsIcESaIcEEEEEEOT_RNSt16remove_referenceISE_E4typeE
FNDA:0,_ZSt7forwardIPKN7testing8internal11MatcherBaseIRKSt5tupleIJRKNSt7__cxx1112basic_stringIcSt11char_traitsIcESaIcEEEEEEEEOT_RNSt16remove_referenceISI_E4typeE
FNDA:0,_ZSt7forwardIPKN7testing8internal11MatcherBaseIRKSt5tupleIJmEEEEEOT_RNSt16remove_referenceISA_E4typeE
FNDA:0,_ZSt7forwardIPKN7testing8internal11MatcherBaseImEEEOT_RNSt16remove_referenceIS6_E4typeE
FNDA:0,_ZSt7forwardIPKN7testing8internal15AnythingMatcherEEOT_RNSt16remove_referenceIS5_E4typeE
FNDA:0,_ZSt7forwardIPKN7testing8internal9EqMatcherImEEEOT_RNSt16remove_referenceIS6_E4typeE
FNDA:4,_ZSt7forwardIPKvEOT_RNSt16remove_referenceIS2_E4typeE
FNDA:0,_ZSt7forwardIRKN7testing10OnceActionIFSt6vectorINSt7__cxx1112basic_stringIcSt11char_traitsIcESaIcEEESaIS8_EEmEE18StdFunctionAdaptorINSC_23IgnoreIncomingArgumentsINS0_8internal12ReturnActionISA_E4ImplISA_EEEEEEEOT_RNSt16remove_referenceISO_E4typeE
FNDA:21,_ZSt7forwardIRKN7testing8internal15AnythingMatcherEEOT_RNSt16remove_referenceIS5_E4typeE
FNDA:2,_ZSt7forwardIRKN7testing8internal16TypedExpectationIFSt6vectorINSt7__cxx1112basic_stringIcSt11char_traitsIcESaIcEEESaIS9_EEmEE13ActionAdaptorEEOT_RNSt16remove_referenceISH_E4typeE
FNDA:564,_ZSt7forwardIRKNSt7__cxx1112basic_stringIcSt11char_traitsIcESaIcEEEEOT_RNSt16remove_referenceIS8_E4typeE
FNDA:17,_ZSt7forwardIRKSt10shared_ptrIN7testing8internal15ExpectationBaseEEEOT_RNSt16remove_referenceIS7_E4typeE
FNDA:2,_ZSt7forwardIRKSt8functionIFSt6vectorINSt7__cxx1112basic_stringIcSt11char_traitsIcESaIcEEESaIS7_EEmEEEOT_RNSt16remove_referenceISE_E4typeE
FNDA:0,_ZSt7forwardIRKSt8functionIFvRKNSt7__cxx1112basic_stringIcSt11char_traitsIcESaIcEEEEEEOT_RNSt16remove_referenceISD_E4typeE
FNDA:2,_ZSt7forwardIRKmEOT_RNSt16remove_referenceIS2_E4typeE
FNDA:11,_ZSt7forwardIRN4calc15InMemoryHistoryEEOT_RNSt16remove_referenceIS3_E4typeE
FNDA:2,_ZSt7forwardIRN7testing10OnceActionIFSt6vectorINSt7__cxx1112basic_stringIcSt11char_traitsIcESaIcEEESaIS8_EEmEE18StdFunctionAdaptorINSC_23IgnoreIncomingArgumentsINS0_8internal12ReturnActionISA_E4ImplISA_EEEEEEEOT_RNSt16remove_referenceISN_E4typeE
FNDA:2,_ZSt7forwardIRN7testing8internal16TypedExpectationIFSt6vectorINSt7__cxx1112basic_stringIcSt11char_traitsIcESaIcEEESaIS9_EEmEE13ActionAdaptorEEOT_RNSt16remove_referenceISG_E4typeE
FNDA:6,_ZSt7forwardISt10shared_ptrIN7testing8internal15ExpectationBaseEEEOT_RNSt16remove_referenceIS5_E4typeE
FNDA:11,_ZSt7forwardISt14default_deleteIN4calc15InMemoryHistoryEEEOT_RNSt16remove_referenceIS4_E4typeE
FNDA:11,_ZSt7forwardISt14default_deleteIN4calc16SimpleCalculatorEEEOT_RNSt16remove_referenceIS4_E4typeE
FNDA:0,_ZSt7forwardISt14default_deleteINSt7__cxx1112basic_stringIcSt11char_traitsIcESaIcEEEEEOT_RNSt16remove_referenceIS8_E4typeE
FNDA:0,_ZSt7forwardISt5tupleIJRKNSt7__cxx1112basic_stringIcSt11char_traitsIcESaIcEEEEEEOT_RNSt16remove_referenceISA_E4typeE
FNDA:2,_ZSt7forwardISt5tupleIJmEEEOT_RNSt16remove_referenceIS2_E4typeE
FNDA:0,_ZSt7forwardISt6vectorINSt7__cxx1112basic_stringIcSt11char_traitsIcESaIcEEESaIS6_EEEOT_RNSt16remove_referenceIS9_E4typeE
FNDA:17,_ZSt7forwardImEOT_RNSt16remove_referenceIS0_E4typeE
FNDA:1,_ZSt4moveIRN7testing10OnceActionIFSt6vectorINSt7__cxx1112basic_stringIcSt11char_traitsIcESaIcEEESaIS8_EEmEE23IgnoreIncomingArgumentsINS0_8internal12ReturnActionISA_E4ImplISA_EEEEEONSt16remove_referenceIT_E4typeEOSM_
FNDA:2,_ZSt4moveIRN7testing10OnceActionIFSt6vectorINSt7__cxx1112basic_stringIcSt11char_traitsIcESaIcEEESaIS8_EEmEEEEONSt16remove_referenceIT_E4typeEOSF_
FNDA:1,_ZSt4moveIRN7testing6ActionIFSt6vectorINSt7__cxx1112basic_stringIcSt11char_traitsIcESaIcEEESaIS8_EEmEEEEONSt16remove_referenceIT_E4typeEOSF_
FNDA:5,_ZSt4moveIRN7testing7MatcherIRKNSt7__cxx1112basic_stringIcSt11char_traitsIcESaIcEEEEEEONSt16remove_referenceIT_E4typeEOSD_
FNDA:1,_ZSt4moveIRN7testing7MatcherImEEEONSt16remove_referenceIT_E4typeEOS5_
FNDA:1,_ZSt4moveIRN7testing8internal12ReturnActionISt6vectorINSt7__cxx1112basic_stringIcSt11char_traitsIcESaIcEEESaIS9_EEE4ImplISB_EEEONSt16remove_referenceIT_E4typeEOSH_
FNDA:12,_ZSt4moveIRNSt12_Vector_baseINSt7__cxx1112basic_stringIcSt11char_traitsIcESaIcEEESaIS6_EE12_Vector_implEEONSt16remove_referenceIT_E4typeEOSC_
FNDA:2745,_ZSt4moveIRNSt7__cxx1112basic_stringIcSt11char_traitsIcESaIcEEEEONSt16remove_referenceIT_E4typeEOS8_
FNDA:3,_ZSt4moveIRPFSt6vectorINSt7__cxx1112basic_stringIcSt11char_traitsIcESaIcEEESaIS6_EERKSt9_Any_dataOmEEONSt16remove_referenceIT_E4typeEOSH_
FNDA:3,_ZSt4moveIRPFbRSt9_Any_dataRKS0_St18_Manager_operationEEONSt16remove_referenceIT_E4typeEOS9_
FNDA:1,_ZSt4moveIRPKvEONSt16remove_referenceIT_E4typeEOS4_
FNDA:11,_ZSt4moveIRPN4calc15InMemoryHistoryEEONSt16remove_referenceIT_E4typeEOS5_
FNDA:11,_ZSt4moveIRPN4calc16SimpleCalculatorEEONSt16remove_referenceIT_E4typeEOS5_
FNDA:0,_ZSt4moveIRPNSt7__cxx1112basic_stringIcSt11char_traitsIcESaIcEEEEONSt16remove_referenceIT_E4typeEOS9_
FNDA:1312,_ZSt4moveIRPNSt7__cxx1118basic_stringstreamIcSt11char_traitsIcESaIcEEEEONSt16remove_referenceIT_E4typeEOS9_
FNDA:0,_ZSt4moveIRSaIcEEONSt16remove_referenceIT_E4typeEOS3_
FNDA:1,_ZSt4moveIRSt10shared_ptrIN7testing10OnceActionIFSt6vectorINSt7__cxx1112basic_stringIcSt11char_traitsIcESaIcEEESaIS9_EEmEE23IgnoreIncomingArgumentsINS1_8internal12ReturnActionISB_E4ImplISB_EEEEEEONSt16remove_referenceIT_E4typeEOSO_
FNDA:1,_ZSt4moveIRSt10shared_ptrIN7testing10OnceActionIFSt6vectorINSt7__cxx1112basic_stringIcSt11char_traitsIcESaIcEEESaIS9_EEmEEEEEONSt16remove_referenceIT_E4typeEOSH_
FNDA:6,_ZSt4moveIRSt10shared_ptrIN7testing8internal15ExpectationBaseEEEONSt16remove_referenceIT_E4typeEOS7_
FNDA:10,_ZSt4moveIRSt5tupleIJRKNSt7__cxx1112basic_stringIcSt11char_traitsIcESaIcEEEEEEONSt16remove_referenceIT_E4typeEOSC_
FNDA:3,_ZSt4moveIRSt5tupleIJmEEEONSt16remove_referenceIT_E4typeEOS4_
FNDA:14,_ZSt4moveIRSt6vectorINSt7__cxx1112basic_stringIcSt11char_traitsIcESaIcEEESaIS6_EEEONSt16remove_referenceIT_E4typeEOSB_
FNDA:3,_ZSt4moveIRSt9_Any_dataEONSt16remove_referenceIT_E4typeEOS3_
FNF:65
FNH:52
DA:51,879
DA:52,879
DA:70,2267
DA:71,2267
DA:97,4147
DA:98,4147
DA:189,3
DA:197,3
DA:198,3
DA:199,3
DA:200,3
LF:11
LH:11
end_of_record
TN:
SF:/usr/include/c++/13/bits/new_allocator.h
FN:104,104,_ZNSt15__new_allocatorINSt7__cxx1112basic_stringIcSt11char_traitsIcESaIcEEEED2Ev
FN:104,104,_ZNSt15__new_allocatorIPKvED2Ev
FN:104,104,_ZNSt15__new_allocatorISt13_Rb_tree_nodeIN7testing11ExpectationEEED2Ev
FN:104,104,_ZNSt15__new_allocatorISt23_Sp_counted_ptr_inplaceIN7testing10OnceActionIFSt6vectorINSt7__cxx1112basic_stringIcSt11char_traitsIcESaIcEEESaIS9_EEmEE23IgnoreIncomingArgumentsINS1_8internal12ReturnActionISB_E4ImplISB_EEEESaIvELN9__gnu_cxx12_Lock_policyE2EEED2Ev
FN:104,104,_ZNSt15__new_allocatorISt23_Sp_counted_ptr_inplaceIN7testing10OnceActionIFSt6vectorINSt7__cxx1112basic_stringIcSt11char_traitsIcESaIcEEESaIS9_EEmEEESaIvELN9__gnu_cxx12_Lock_policyE2EEED2Ev
FN:104,104,_ZNSt15__new_allocatorIcED2Ev
FN:126,152,_ZNSt15__new_allocatorINSt7__cxx1112basic_stringIcSt11char_traitsIcESaIcEEEE8allocateEmPKv
FN:126,152,_ZNSt15__new_allocatorIPKvE8allocateEmS1_
FN:126,152,_ZNSt15__new_allocatorISt10shared_ptrIN7testing8internal15ExpectationBaseEEE8allocateEmPKv
FN:126,152,_ZNSt15__new_allocatorISt23_Sp_counted_ptr_inplaceIN7testing10OnceActionIFSt6vectorINSt7__cxx1112basic_stringIcSt11char_traitsIcESaIcEEESaIS9_EEmEE23IgnoreIncomingArgumentsINS1_8internal12ReturnActionISB_E4ImplISB_EEEESaIvELN9__gnu_cxx12_Lock_policyE2EEE8allocateEmPKv
FN:126,152,_ZNSt15__new_allocatorISt23_Sp_counted_ptr_inplaceIN7testing10OnceActionIFSt6vectorINSt7__cxx1112basic_stringIcSt11char_traitsIcESaIcEEESaIS9_EEmEEESaIvELN9__gnu_cxx12_Lock_policyE2EEE8allocateEmPKv
FN:156,173,_ZNSt15__new_allocatorINSt7__cxx1112basic_stringIcSt11char_traitsIcESaIcEEEE10deallocateEPS5_m
FN:156,173,_ZNSt15__new_allocatorIPKvE10deallocateEPS1_m
FN:156,173,_ZNSt15__new_allocatorISt10shared_ptrIN7testing8internal15ExpectationBaseEEE10deallocateEPS4_m
FN:156,173,_ZNSt15__new_allocatorISt13_Rb_tree_nodeIN7testing11ExpectationEEE10deallocateEPS3_m
FN:156,173,_ZNSt15__new_allocatorISt23_Sp_counted_ptr_inplaceIN7testing10OnceActionIFSt6vectorINSt7__cxx1112basic_stringIcSt11char_traitsIcESaIcEEESaIS9_EEmEE23IgnoreIncomingArgumentsINS1_8internal12ReturnActionISB_E4ImplISB_EEEESaIvELN9__gnu_cxx12_Lock_policyE2EEE10deallocateEPSO_m
FN:156,173,_ZNSt15__new_allocatorISt23_Sp_counted_ptr_inplaceIN7testing10OnceActionIFSt6vectorINSt7__cxx1112basic_stringIcSt11char_traitsIcESaIcEEESaIS9_EEmEEESaIvELN9__gnu_cxx12_Lock_policyE2EEE10deallocateEPSH_m
FNDA:651,_ZNSt15__new_allocatorINSt7__cxx1112basic_stringIcSt11char_traitsIcESaIcEEEED2Ev
FNDA:18,_ZNSt15__new_allocatorIPKvED2Ev
FNDA:6,_ZNSt15__new_allocatorISt13_Rb_tree_nodeIN7testing11ExpectationEEED2Ev
FNDA:2,_ZNSt15__new_allocatorISt23_Sp_counted_ptr_inplaceIN7testing10OnceActionIFSt6vectorINSt7__cxx1112basic_stringIcSt11char_traitsIcESaIcEEESaIS9_EEmEE23IgnoreIncomingArgumentsINS1_8internal12ReturnActionISB_E4ImplISB_EEEESaIvELN9__gnu_cxx12_Lock_policyE2EEED2Ev
FNDA:2,_ZNSt15__new_allocatorISt23_Sp_counted_ptr_inplaceIN7testing10OnceActionIFSt6vectorINSt7__cxx1112basic_stringIcSt11char_traitsIcESaIcEEESaIS9_EEmEEESaIvELN9__gnu_cxx12_Lock_policyE2EEED2Ev
FNDA:1763,_ZNSt15__new_allocatorIcED2Ev
FNDA:327,_ZNSt15__new_allocatorINSt7__cxx1112basic_stringIcSt11char_traitsIcESaIcEEEE8allocateEmPKv
FNDA:1,_ZNSt15__new_allocatorIPKvE8allocateEmS1_
FNDA:5,_ZNSt15__new_allocatorISt10shared_ptrIN7testing8internal15ExpectationBaseEEE8allocateEmPKv
FNDA:1,_ZNSt15__new_allocatorISt23_Sp_counted_ptr_inplaceIN7testing10OnceActionIFSt6vectorINSt7__cxx1112basic_stringIcSt11char_traitsIcESaIcEEESaIS9_EEmEE23IgnoreIncomingArgumentsINS1_8internal12ReturnActionISB_E4ImplISB_EEEESaIvELN9__gnu_cxx12_Lock_policyE2EEE8allocateEmPKv
FNDA:1,_ZNSt15__new_allocatorISt23_Sp_counted_ptr_inplaceIN7testing10OnceActionIFSt6vectorINSt7__cxx1112basic_stringIcSt11char_traitsIcESaIcEEESaIS9_EEmEEESaIvELN9__gnu_cxx12_Lock_policyE2EEE8allocateEmPKv
FNDA:327,_ZNSt15__new_allocatorINSt7__cxx1112basic_stringIcSt11char_traitsIcESaIcEEEE10deallocateEPS5_m
FNDA:1,_ZNSt15__new_allocatorIPKvE10deallocateEPS1_m
FNDA:5,_ZNSt15__new_allocatorISt10shared_ptrIN7testing8internal15ExpectationBaseEEE10deallocateEPS4_m
FNDA:0,_ZNSt15__new_allocatorISt13_Rb_tree_nodeIN7testing11ExpectationEEE10deallocateEPS3_m
FNDA:1,_ZNSt15__new_allocatorISt23_Sp_counted_ptr_inplaceIN7testing10OnceActionIFSt6vectorINSt7__cxx1112basic_stringIcSt11char_traitsIcESaIcEEESaIS9_EEmEE23IgnoreIncomingArgumentsINS1_8internal12ReturnActionISB_E4ImplISB_EEEESaIvELN9__gnu_cxx12_Lock_policyE2EEE10deallocateEPSO_m
FNDA:1,_ZNSt15__new_allocatorISt23_Sp_counted_ptr_inplaceIN7testing10OnceActionIFSt6vectorINSt7__cxx1112basic_stringIcSt11char_traitsIcESaIcEEESaIS9_EEmEEESaIvELN9__gnu_cxx12_Lock_policyE2EEE10deallocateEPSH_m
FNF:17
FNH:16
DA:88,526
DA:92,138
DA:104,2442
DA:126,335
DA:134,335
DA:138,0
DA:139,0
DA:140,0
DA:151,335
DA:156,335
DA:172,335
DA:183,611
DA:191,140
DA:198,107
DA:233,946
LF:15
LH:12
end_of_record
TN:
SF:/usr/include/c++/13/bits/ptr_traits.h
FN:212,216,_ZSt12__to_addressISt23_Sp_counted_ptr_inplaceIN7testing10OnceActionIFSt6vectorINSt7__cxx1112basic_stringIcSt11char_traitsIcESaIcEEESaIS9_EEmEE23IgnoreIncomingArgumentsINS1_8internal12ReturnActionISB_E4ImplISB_EEEESaIvELN9__gnu_cxx12_Lock_policyE2EEEPT_SQ_
FN:212,216,_ZSt12__to_addressISt23_Sp_counted_ptr_inplaceIN7testing10OnceActionIFSt6vectorINSt7__cxx1112basic_stringIcSt11char_traitsIcESaIcEEESaIS9_EEmEEESaIvELN9__gnu_cxx12_Lock_policyE2EEEPT_SJ_
FNDA:1,_ZSt12__to_addressISt23_Sp_counted_ptr_inplaceIN7testing10OnceActionIFSt6vectorINSt7__cxx1112basic_stringIcSt11char_traitsIcESaIcEEESaIS9_EEmEE23IgnoreIncomingArgumentsINS1_8internal12ReturnActionISB_E4ImplISB_EEEESaIvELN9__gnu_cxx12_Lock_policyE2EEEPT_SQ_
FNDA:1,_ZSt12__to_addressISt23_Sp_counted_ptr_inplaceIN7testing10OnceActionIFSt6vectorINSt7__cxx1112basic_stringIcSt11char_traitsIcESaIcEEESaIS9_EEmEEESaIvELN9__gnu_cxx12_Lock_policyE2EEEPT_SJ_
FNF:2
FNH:2
DA:212,2
DA:215,2
LF:2
LH:2
end_of_record
TN:
SF:/usr/include/c++/13/bits/shared_ptr.h
FN:1005,1011,_ZSt11make_sharedIN7testing10OnceActionIFSt6vectorINSt7__cxx1112basic_stringIcSt11char_traitsIcESaIcEEESaIS8_EEmEE23IgnoreIncomingArgumentsINS0_8internal12ReturnActionISA_E4ImplISA_EEEEJSJ_EESt10shared_ptrINSt9enable_ifIXntsrSt8is_arrayIT_E5valueESN_E4typeEEDpOT0_
FN:1005,1011,_ZSt11make_sharedIN7testing10OnceActionIFSt6vectorINSt7__cxx1112basic_stringIcSt11char_traitsIcESaIcEEESaIS8_EEmEEEJSC_EESt10shared_ptrINSt9enable_ifIXntsrSt8is_arrayIT_E5valueESG_E4typeEEDpOT0_
FN:204,204,_ZNSt10shared_ptrIN7testing10OnceActionIFSt6vectorINSt7__cxx1112basic_stringIcSt11char_traitsIcESaIcEEESaIS8_EEmEE23IgnoreIncomingArgumentsINS0_8internal12ReturnActionISA_E4ImplISA_EEEEEC2ERKSK_
FN:204,204,_ZNSt10shared_ptrIN7testing10OnceActionIFSt6vectorINSt7__cxx1112basic_stringIcSt11char_traitsIcESaIcEEESaIS8_EEmEEEEC2ERKSD_
FN:204,204,_ZNSt10shared_ptrIN7testing8internal12ReturnActionISt6vectorINSt7__cxx1112basic_stringIcSt11char_traitsIcESaIcEEESaIS9_EEE4ImplISB_E5StateEEC2ERKSG_
FN:204,204,_ZNSt10shared_ptrIN7testing8internal15ExpectationBaseEEC2ERKS3_
FN:214,214,_ZNSt10shared_ptrIN7testing8internal12ReturnActionISt6vectorINSt7__cxx1112basic_stringIcSt11char_traitsIcESaIcEEESaIS9_EEE4ImplISB_E5StateEEC2ISF_vEEPT_
FN:214,214,_ZNSt10shared_ptrIN7testing8internal15ExpectationBaseEEC2INS1_16TypedExpectationIFSt6vectorINSt7__cxx1112basic_stringIcSt11char_traitsIcESaIcEEESaISC_EEmEEEvEEPT_
FN:214,214,_ZNSt10shared_ptrIN7testing8internal15ExpectationBaseEEC2INS1_16TypedExpectationIFvRKNSt7__cxx1112basic_stringIcSt11char_traitsIcESaIcEEEEEEvEEPT_
FN:359,360,_ZNSt10shared_ptrIN7testing10OnceActionIFSt6vectorINSt7__cxx1112basic_stringIcSt11char_traitsIcESaIcEEESaIS8_EEmEE23IgnoreIncomingArgumentsINS0_8internal12ReturnActionISA_E4ImplISA_EEEEEC2EOSK_
FN:359,360,_ZNSt10shared_ptrIN7testing10OnceActionIFSt6vectorINSt7__cxx1112basic_stringIcSt11char_traitsIcESaIcEEESaIS8_EEmEEEEC2EOSD_
FN:359,360,_ZNSt10shared_ptrIN7testing8internal15ExpectationBaseEEC2EOS3_
FN:414,414,_ZNSt10shared_ptrIKN7testing20CardinalityInterfaceEEaSERKS3_
FN:463,465,_ZNSt10shared_ptrIN7testing10OnceActionIFSt6vectorINSt7__cxx1112basic_stringIcSt11char_traitsIcESaIcEEESaIS8_EEmEE23IgnoreIncomingArgumentsINS0_8internal12ReturnActionISA_E4ImplISA_EEEEEC2ISaIvEJSJ_EEESt20_Sp_alloc_shared_tagIT_EDpOT0_
FN:463,465,_ZNSt10shared_ptrIN7testing10OnceActionIFSt6vectorINSt7__cxx1112basic_stringIcSt11char_traitsIcESaIcEEESaIS8_EEmEEEEC2ISaIvEJSC_EEESt20_Sp_alloc_shared_tagIT_EDpOT0_
FNDA:1,_ZSt11make_sharedIN7testing10OnceActionIFSt6vectorINSt7__cxx1112basic_stringIcSt11char_traitsIcESaIcEEESaIS8_EEmEE23IgnoreIncomingArgumentsINS0_8internal12ReturnActionISA_E4ImplISA_EEEEJSJ_EESt10shared_ptrINSt9enable_ifIXntsrSt8is_arrayIT_E5valueESN_E4typeEEDpOT0_
FNDA:1,_ZSt11make_sharedIN7testing10OnceActionIFSt6vectorINSt7__cxx1112basic_stringIcSt11char_traitsIcESaIcEEESaIS8_EEmEEEJSC_EESt10shared_ptrINSt9enable_ifIXntsrSt8is_arrayIT_E5valueESG_E4typeEEDpOT0_
FNDA:0,_ZNSt10shared_ptrIN7testing10OnceActionIFSt6vectorINSt7__cxx1112basic_stringIcSt11char_traitsIcESaIcEEESaIS8_EEmEE23IgnoreIncomingArgumentsINS0_8internal12ReturnActionISA_E4ImplISA_EEEEEC2ERKSK_
FNDA:1,_ZNSt10shared_ptrIN7testing10OnceActionIFSt6vectorINSt7__cxx1112basic_stringIcSt11char_traitsIcESaIcEEESaIS8_EEmEEEEC2ERKSD_
FNDA:2,_ZNSt10shared_ptrIN7testing8internal12ReturnActionISt6vectorINSt7__cxx1112basic_stringIcSt11char_traitsIcESaIcEEESaIS9_EEE4ImplISB_E5StateEEC2ERKSG_
FNDA:6,_ZNSt10shared_ptrIN7testing8internal15ExpectationBaseEEC2ERKS3_
FNDA:1,_ZNSt10shared_ptrIN7testing8internal12ReturnActionISt6vectorINSt7__cxx1112basic_stringIcSt11char_traitsIcESaIcEEESaIS9_EEE4ImplISB_E5StateEEC2ISF_vEEPT_
FNDA:1,_ZNSt10shared_ptrIN7testing8internal15ExpectationBaseEEC2INS1_16TypedExpectationIFSt6vectorINSt7__cxx1112basic_stringIcSt11char_traitsIcESaIcEEESaISC_EEmEEEvEEPT_
FNDA:5,_ZNSt10shared_ptrIN7testing8internal15ExpectationBaseEEC2INS1_16TypedExpectationIFvRKNSt7__cxx1112basic_stringIcSt11char_traitsIcESaIcEEEEEEvEEPT_
FNDA:1,_ZNSt10shared_ptrIN7testing10OnceActionIFSt6vectorINSt7__cxx1112basic_stringIcSt11char_traitsIcESaIcEEESaIS8_EEmEE23IgnoreIncomingArgumentsINS0_8internal12ReturnActionISA_E4ImplISA_EEEEEC2EOSK_
FNDA:1,_ZNSt10shared_ptrIN7testing10OnceActionIFSt6vectorINSt7__cxx1112basic_stringIcSt11char_traitsIcESaIcEEESaIS8_EEmEEEEC2EOSD_
FNDA:3,_ZNSt10shared_ptrIN7testing8internal15ExpectationBaseEEC2EOS3_
FNDA:6,_ZNSt10shared_ptrIKN7testing20CardinalityInterfaceEEaSERKS3_
FNDA:1,_ZNSt10shared_ptrIN7testing10OnceActionIFSt6vectorINSt7__cxx1112basic_stringIcSt11char_traitsIcESaIcEEESaIS8_EEmEE23IgnoreIncomingArgumentsINS0_8internal12ReturnActionISA_E4ImplISA_EEEEEC2ISaIvEJSJ_EEESt20_Sp_alloc_shared_tagIT_EDpOT0_
FNDA:1,_ZNSt10shared_ptrIN7testing10OnceActionIFSt6vectorINSt7__cxx1112basic_stringIcSt11char_traitsIcESaIcEEESaIS8_EEmEEEEC2ISaIvEJSC_EEESt20_Sp_alloc_shared_tagIT_EDpOT0_
FNF:15
FNH:14
DA:204,9
DA:214,7
DA:359,5
DA:360,5
DA:414,6
DA:463,2
DA:464,2
DA:465,2
DA:1005,2
DA:1010,4
LF:10
LH:10
end_of_record
TN:
SF:/usr/include/c++/13/bits/shared_ptr_base.h
FN:1068,1072,_ZNSt14__shared_countILN9__gnu_cxx12_Lock_policyE2EED2Ev
FN:1074,1079,_ZNSt14__shared_countILN9__gnu_cxx12_Lock_policyE2EEC2ERKS2_
FN:1082,1094,_ZNSt14__shared_countILN9__gnu_cxx12_Lock_policyE2EEaSERKS2_
FN:1097,1102,_ZNSt14__shared_countILN9__gnu_cxx12_Lock_policyE2EE7_M_swapERS2_
FN:129,130,_ZNSt16_Sp_counted_baseILN9__gnu_cxx12_Lock_policyE2EEC2Ev
FN:133,134,_ZNSt16_Sp_counted_baseILN9__gnu_cxx12_Lock_policyE2EED0Ev
FN:133,134,_ZNSt16_Sp_counted_baseILN9__gnu_cxx12_Lock_policyE2EED2Ev
FN:1347,1351,_ZNKSt19__shared_ptr_accessIN7testing10OnceActionIFSt6vectorINSt7__cxx1112basic_stringIcSt11char_traitsIcESaIcEEESaIS8_EEmEE23IgnoreIncomingArgumentsINS0_8internal12ReturnActionISA_E4ImplISA_EEEELN9__gnu_cxx12_Lock_policyE2ELb0ELb0EEdeEv
FN:1347,1351,_ZNKSt19__shared_ptr_accessIN7testing10OnceActionIFSt6vectorINSt7__cxx1112basic_stringIcSt11char_traitsIcESaIcEEESaIS8_EEmEEELN9__gnu_cxx12_Lock_policyE2ELb0ELb0EEdeEv
FN:1354,1358,_ZNKSt19__shared_ptr_accessIKN7testing20CardinalityInterfaceELN9__gnu_cxx12_Lock_policyE2ELb0ELb0EEptEv
FN:1354,1358,_ZNKSt19__shared_ptr_accessIN7testing8internal12ReturnActionISt6vectorINSt7__cxx1112basic_stringIcSt11char_traitsIcESaIcEEESaIS9_EEE4ImplISB_E5StateELN9__gnu_cxx12_Lock_policyE2ELb0ELb0EEptEv
FN:1354,1358,_ZNKSt19__shared_ptr_accessIN7testing8internal15ExpectationBaseELN9__gnu_cxx12_Lock_policyE2ELb0ELb0EEptEv
FN:1362,1363,_ZNKSt19__shared_ptr_accessIKN7testing20CardinalityInterfaceELN9__gnu_cxx12_Lock_policyE2ELb0ELb0EE6_M_getEv
FN:1362,1363,_ZNKSt19__shared_ptr_accessIN7testing10OnceActionIFSt6vectorINSt7__cxx1112basic_stringIcSt11char_traitsIcESaIcEEESaIS8_EEmEE23IgnoreIncomingArgumentsINS0_8internal12ReturnActionISA_E4ImplISA_EEEELN9__gnu_cxx12_Lock_policyE2ELb0ELb0EE6_M_getEv
FN:1362,1363,_ZNKSt19__shared_ptr_accessIN7testing10OnceActionIFSt6vectorINSt7__cxx1112basic_stringIcSt11char_traitsIcESaIcEEESaIS8_EEmEEELN9__gnu_cxx12_Lock_policyE2ELb0ELb0EE6_M_getEv
FN:1362,1363,_ZNKSt19__shared_ptr_accessIN7testing8internal12ReturnActionISt6vectorINSt7__cxx1112basic_stringIcSt11char_traitsIcESaIcEEESaIS9_EEE4ImplISB_E5StateELN9__gnu_cxx12_Lock_policyE2ELb0ELb0EE6_M_getEv
FN:1362,1363,_ZNKSt19__shared_ptr_accessIN7testing8internal15ExpectationBaseELN9__gnu_cxx12_Lock_policyE2ELb0ELb0EE6_M_getEv
FN:143,144,_ZNSt16_Sp_counted_baseILN9__gnu_cxx12_Lock_policyE2EE10_M_destroyEv
FN:1468,1474,_ZNSt12__shared_ptrIN7testing8internal12ReturnActionISt6vectorINSt7__cxx1112basic_stringIcSt11char_traitsIcESaIcEEESaIS9_EEE4ImplISB_E5StateELN9__gnu_cxx12_Lock_policyE2EEC2ISF_vEEPT_
FN:1468,1474,_ZNSt12__shared_ptrIN7testing8internal15ExpectationBaseELN9__gnu_cxx12_Lock_policyE2EEC2INS1_16TypedExpectationIFSt6vectorINSt7__cxx1112basic_stringIcSt11char_traitsIcESaIcEEESaISE_EEmEEEvEEPT_
FN:1468,1474,_ZNSt12__shared_ptrIN7testing8internal15ExpectationBaseELN9__gnu_cxx12_Lock_policyE2EEC2INS1_16TypedExpectationIFvRKNSt7__cxx1112basic_stringIcSt11char_traitsIcESaIcEEEEEEvEEPT_
FN:151,152,_ZNSt16_Sp_counted_baseILN9__gnu_cxx12_Lock_policyE2EE15_M_add_ref_copyEv
FN:1522,1522,_ZNSt12__shared_ptrIN7testing10OnceActionIFSt6vectorINSt7__cxx1112basic_stringIcSt11char_traitsIcESaIcEEESaIS8_EEmEE23IgnoreIncomingArgumentsINS0_8internal12ReturnActionISA_E4ImplISA_EEEELN9__gnu_cxx12_Lock_policyE2EEC2ERKSM_
FN:1522,1522,_ZNSt12__shared_ptrIN7testing10OnceActionIFSt6vectorINSt7__cxx1112basic_stringIcSt11char_traitsIcESaIcEEESaIS8_EEmEEELN9__gnu_cxx12_Lock_policyE2EEC2ERKSF_
FN:1522,1522,_ZNSt12__shared_ptrIN7testing8internal12ReturnActionISt6vectorINSt7__cxx1112basic_stringIcSt11char_traitsIcESaIcEEESaIS9_EEE4ImplISB_E5StateELN9__gnu_cxx12_Lock_policyE2EEC2ERKSI_
FN:1522,1522,_ZNSt12__shared_ptrIN7testing8internal15ExpectationBaseELN9__gnu_cxx12_Lock_policyE2EEC2ERKS5_
FN:1523,1523,_ZNSt12__shared_ptrIKN7testing20CardinalityInterfaceELN9__gnu_cxx12_Lock_policyE2EEaSERKS5_
FN:1524,1524,_ZNSt12__shared_ptrIKN7testing20CardinalityInterfaceELN9__gnu_cxx12_Lock_policyE2EED2Ev
FN:1524,1524,_ZNSt12__shared_ptrIN7testing10OnceActionIFSt6vectorINSt7__cxx1112basic_stringIcSt11char_traitsIcESaIcEEESaIS8_EEmEE23IgnoreIncomingArgumentsINS0_8internal12ReturnActionISA_E4ImplISA_EEEELN9__gnu_cxx12_Lock_policyE2EED2Ev
FN:1524,1524,_ZNSt12__shared_ptrIN7testing10OnceActionIFSt6vectorINSt7__cxx1112basic_stringIcSt11char_traitsIcESaIcEEESaIS8_EEmEEELN9__gnu_cxx12_Lock_policyE2EED2Ev
FN:1524,1524,_ZNSt12__shared_ptrIN7testing8internal12ReturnActionISt6vectorINSt7__cxx1112basic_stringIcSt11char_traitsIcESaIcEEESaIS9_EEE4ImplISB_E5StateELN9__gnu_cxx12_Lock_policyE2EED2Ev
FN:1524,1524,_ZNSt12__shared_ptrIN7testing8internal15ExpectationBaseELN9__gnu_cxx12_Lock_policyE2EED2Ev
FN:1531,1536,_ZNSt12__shared_ptrIN7testing10OnceActionIFSt6vectorINSt7__cxx1112basic_stringIcSt11char_traitsIcESaIcEEESaIS8_EEmEE23IgnoreIncomingArgumentsINS0_8internal12ReturnActionISA_E4ImplISA_EEEELN9__gnu_cxx12_Lock_policyE2EEC2EOSM_
FN:1531,1536,_ZNSt12__shared_ptrIN7testing10OnceActionIFSt6vectorINSt7__cxx1112basic_stringIcSt11char_traitsIcESaIcEEESaIS8_EEmEEELN9__gnu_cxx12_Lock_policyE2EEC2EOSF_
FN:1531,1536,_ZNSt12__shared_ptrIN7testing8internal15ExpectationBaseELN9__gnu_cxx12_Lock_policyE2EEC2EOS5_
FN:1665,1666,_ZNKSt12__shared_ptrIKN7testing20CardinalityInterfaceELN9__gnu_cxx12_Lock_policyE2EE3getEv
FN:1665,1666,_ZNKSt12__shared_ptrIN7testing10OnceActionIFSt6vectorINSt7__cxx1112basic_stringIcSt11char_traitsIcESaIcEEESaIS8_EEmEE23IgnoreIncomingArgumentsINS0_8internal12ReturnActionISA_E4ImplISA_EEEELN9__gnu_cxx12_Lock_policyE2EE3getEv
FN:1665,1666,_ZNKSt12__shared_ptrIN7testing10OnceActionIFSt6vectorINSt7__cxx1112basic_stringIcSt11char_traitsIcESaIcEEESaIS8_EEmEEELN9__gnu_cxx12_Lock_policyE2EE3getEv
FN:1665,1666,_ZNKSt12__shared_ptrIN7testing8internal12ReturnActionISt6vectorINSt7__cxx1112basic_stringIcSt11char_traitsIcESaIcEEESaIS9_EEE4ImplISB_E5StateELN9__gnu_cxx12_Lock_policyE2EE3getEv
FN:1665,1666,_ZNKSt12__shared_ptrIN7testing8internal15ExpectationBaseELN9__gnu_cxx12_Lock_policyE2EE3getEv
FN:1711,1713,_ZNSt12__shared_ptrIN7testing10OnceActionIFSt6vectorINSt7__cxx1112basic_stringIcSt11char_traitsIcESaIcEEESaIS8_EEmEE23IgnoreIncomingArgumentsINS0_8internal12ReturnActionISA_E4ImplISA_EEEELN9__gnu_cxx12_Lock_policyE2EEC2ISaIvEJSJ_EEESt20_Sp_alloc_shared_tagIT_EDpOT0_
FN:1711,1713,_ZNSt12__shared_ptrIN7testing10OnceActionIFSt6vectorINSt7__cxx1112basic_stringIcSt11char_traitsIcESaIcEEESaIS8_EEmEEELN9__gnu_cxx12_Lock_policyE2EEC2ISaIvEJSC_EEESt20_Sp_alloc_shared_tagIT_EDpOT0_
FN:172,193,_ZNSt16_Sp_counted_baseILN9__gnu_cxx12_Lock_policyE2EE19_M_release_last_useEv
FN:1765,1766,_ZNSt12__shared_ptrIN7testing10OnceActionIFSt6vectorINSt7__cxx1112basic_stringIcSt11char_traitsIcESaIcEEESaIS8_EEmEE23IgnoreIncomingArgumentsINS0_8internal12ReturnActionISA_E4ImplISA_EEEELN9__gnu_cxx12_Lock_policyE2EE31_M_enable_shared_from_this_withISJ_SJ_EENSt9enable_ifIXntsrNSM_15__has_esft_baseIT0_vEE5valueEvE4typeEPT_
FN:1765,1766,_ZNSt12__shared_ptrIN7testing10OnceActionIFSt6vectorINSt7__cxx1112basic_stringIcSt11char_traitsIcESaIcEEESaIS8_EEmEEELN9__gnu_cxx12_Lock_policyE2EE31_M_enable_shared_from_this_withISC_SC_EENSt9enable_ifIXntsrNSF_15__has_esft_baseIT0_vEE5valueEvE4typeEPT_
FN:1765,1766,_ZNSt12__shared_ptrIN7testing8internal12ReturnActionISt6vectorINSt7__cxx1112basic_stringIcSt11char_traitsIcESaIcEEESaIS9_EEE4ImplISB_E5StateELN9__gnu_cxx12_Lock_policyE2EE31_M_enable_shared_from_this_withISF_SF_EENSt9enable_ifIXntsrNSI_15__has_esft_baseIT0_vEE5valueEvE4typeEPT_
FN:1765,1766,_ZNSt12__shared_ptrIN7testing8internal15ExpectationBaseELN9__gnu_cxx12_Lock_policyE2EE31_M_enable_shared_from_this_withINS1_16TypedExpectationIFSt6vectorINSt7__cxx1112basic_stringIcSt11char_traitsIcESaIcEEESaISE_EEmEEESI_EENSt9enable_ifIXntsrNS5_15__has_esft_baseIT0_vEE5valueEvE4typeEPT_
FN:1765,1766,_ZNSt12__shared_ptrIN7testing8internal15ExpectationBaseELN9__gnu_cxx12_Lock_policyE2EE31_M_enable_shared_from_this_withINS1_16TypedExpectationIFvRKNSt7__cxx1112basic_stringIcSt11char_traitsIcESaIcEEEEEESH_EENSt9enable_ifIXntsrNS5_15__has_esft_baseIT0_vEE5valueEvE4typeEPT_
FN:198,199,_ZNSt16_Sp_counted_baseILN9__gnu_cxx12_Lock_policyE2EE24_M_release_last_use_coldEv
FN:317,363,_ZNSt16_Sp_counted_baseILN9__gnu_cxx12_Lock_policyE2EE10_M_releaseEv
FN:423,424,_ZNSt15_Sp_counted_ptrIPN7testing8internal12ReturnActionISt6vectorINSt7__cxx1112basic_stringIcSt11char_traitsIcESaIcEEESaIS9_EEE4ImplISB_E5StateELN9__gnu_cxx12_Lock_policyE2EEC2ESG_
FN:423,424,_ZNSt15_Sp_counted_ptrIPN7testing8internal16TypedExpectationIFSt6vectorINSt7__cxx1112basic_stringIcSt11char_traitsIcESaIcEEESaIS9_EEmEEELN9__gnu_cxx12_Lock_policyE2EEC2ESE_
FN:423,424,_ZNSt15_Sp_counted_ptrIPN7testing8internal16TypedExpectationIFvRKNSt7__cxx1112basic_stringIcSt11char_traitsIcESaIcEEEEEELN9__gnu_cxx12_Lock_policyE2EEC2ESD_
FN:427,428,_ZNSt15_Sp_counted_ptrIPN7testing8internal12ReturnActionISt6vectorINSt7__cxx1112basic_stringIcSt11char_traitsIcESaIcEEESaIS9_EEE4ImplISB_E5StateELN9__gnu_cxx12_Lock_policyE2EE10_M_disposeEv
FN:427,428,_ZNSt15_Sp_counted_ptrIPN7testing8internal16TypedExpectationIFSt6vectorINSt7__cxx1112basic_stringIcSt11char_traitsIcESaIcEEESaIS9_EEmEEELN9__gnu_cxx12_Lock_policyE2EE10_M_disposeEv
FN:427,428,_ZNSt15_Sp_counted_ptrIPN7testing8internal16TypedExpectationIFvRKNSt7__cxx1112basic_stringIcSt11char_traitsIcESaIcEEEEEELN9__gnu_cxx12_Lock_policyE2EE10_M_disposeEv
FN:431,432,_ZNSt15_Sp_counted_ptrIPN7testing8internal12ReturnActionISt6vectorINSt7__cxx1112basic_stringIcSt11char_traitsIcESaIcEEESaIS9_EEE4ImplISB_E5StateELN9__gnu_cxx12_Lock_policyE2EE10_M_destroyEv
FN:431,432,_ZNSt15_Sp_counted_ptrIPN7testing8internal16TypedExpectationIFSt6vectorINSt7__cxx1112basic_stringIcSt11char_traitsIcESaIcEEESaIS9_EEmEEELN9__gnu_cxx12_Lock_policyE2EE10_M_destroyEv
FN:431,432,_ZNSt15_Sp_counted_ptrIPN7testing8internal16TypedExpectationIFvRKNSt7__cxx1112basic_stringIcSt11char_traitsIcESaIcEEEEEELN9__gnu_cxx12_Lock_policyE2EE10_M_destroyEv
FN:435,436,_ZNSt15_Sp_counted_ptrIPN7testing8internal12ReturnActionISt6vectorINSt7__cxx1112basic_stringIcSt11char_traitsIcESaIcEEESaIS9_EEE4ImplISB_E5StateELN9__gnu_cxx12_Lock_policyE2EE14_M_get_deleterERKSt9type_info
FN:435,436,_ZNSt15_Sp_counted_ptrIPN7testing8internal16TypedExpectationIFSt6vectorINSt7__cxx1112basic_stringIcSt11char_traitsIcESaIcEEESaIS9_EEmEEELN9__gnu_cxx12_Lock_policyE2EE14_M_get_deleterERKSt9type_info
FN:435,436,_ZNSt15_Sp_counted_ptrIPN7testing8internal16TypedExpectationIFvRKNSt7__cxx1112basic_stringIcSt11char_traitsIcESaIcEEEEEELN9__gnu_cxx12_Lock_policyE2EE14_M_get_deleterERKSt9type_info
FN:470,470,_ZNSt14_Sp_ebo_helperILi0ESaIvELb1EEC2ERKS0_
FN:474,474,_ZNSt14_Sp_ebo_helperILi0ESaIvELb1EE6_S_getERS1_
FN:564,568,_ZNSt19_Sp_make_shared_tag5_S_tiEv
FN:587,587,_ZNSt23_Sp_counted_ptr_inplaceIN7testing10OnceActionIFSt6vectorINSt7__cxx1112basic_stringIcSt11char_traitsIcESaIcEEESaIS8_EEmEE23IgnoreIncomingArgumentsINS0_8internal12ReturnActionISA_E4ImplISA_EEEESaIvELN9__gnu_cxx12_Lock_policyE2EE5_ImplC2ESK_
FN:587,587,_ZNSt23_Sp_counted_ptr_inplaceIN7testing10OnceActionIFSt6vectorINSt7__cxx1112basic_stringIcSt11char_traitsIcESaIcEEESaIS8_EEmEEESaIvELN9__gnu_cxx12_Lock_policyE2EE5_ImplC2ESD_
FN:589,589,_ZNSt23_Sp_counted_ptr_inplaceIN7testing10OnceActionIFSt6vectorINSt7__cxx1112basic_stringIcSt11char_traitsIcESaIcEEESaIS8_EEmEE23IgnoreIncomingArgumentsINS0_8internal12ReturnActionISA_E4ImplISA_EEEESaIvELN9__gnu_cxx12_Lock_policyE2EE5_Impl8_M_allocEv
FN:589,589,_ZNSt23_Sp_counted_ptr_inplaceIN7testing10OnceActionIFSt6vectorINSt7__cxx1112basic_stringIcSt11char_traitsIcESaIcEEESaIS8_EEmEEESaIvELN9__gnu_cxx12_Lock_policyE2EE5_Impl8_M_allocEv
FN:599,606,_ZNSt23_Sp_counted_ptr_inplaceIN7testing10OnceActionIFSt6vectorINSt7__cxx1112basic_stringIcSt11char_traitsIcESaIcEEESaIS8_EEmEE23IgnoreIncomingArgumentsINS0_8internal12ReturnActionISA_E4ImplISA_EEEESaIvELN9__gnu_cxx12_Lock_policyE2EEC2IJSJ_EEESK_DpOT_
FN:599,606,_ZNSt23_Sp_counted_ptr_inplaceIN7testing10OnceActionIFSt6vectorINSt7__cxx1112basic_stringIcSt11char_traitsIcESaIcEEESaIS8_EEmEEESaIvELN9__gnu_cxx12_Lock_policyE2EEC2IJSC_EEESD_DpOT_
FN:608,608,_ZNSt23_Sp_counted_ptr_inplaceIN7testing10OnceActionIFSt6vectorINSt7__cxx1112basic_stringIcSt11char_traitsIcESaIcEEESaIS8_EEmEE23IgnoreIncomingArgumentsINS0_8internal12ReturnActionISA_E4ImplISA_EEEESaIvELN9__gnu_cxx12_Lock_policyE2EED0Ev
FN:608,608,_ZNSt23_Sp_counted_ptr_inplaceIN7testing10OnceActionIFSt6vectorINSt7__cxx1112basic_stringIcSt11char_traitsIcESaIcEEESaIS8_EEmEE23IgnoreIncomingArgumentsINS0_8internal12ReturnActionISA_E4ImplISA_EEEESaIvELN9__gnu_cxx12_Lock_policyE2EED2Ev
FN:608,608,_ZNSt23_Sp_counted_ptr_inplaceIN7testing10OnceActionIFSt6vectorINSt7__cxx1112basic_stringIcSt11char_traitsIcESaIcEEESaIS8_EEmEEESaIvELN9__gnu_cxx12_Lock_policyE2EED0Ev
FN:608,608,_ZNSt23_Sp_counted_ptr_inplaceIN7testing10OnceActionIFSt6vectorINSt7__cxx1112basic_stringIcSt11char_traitsIcESaIcEEESaIS8_EEmEEESaIvELN9__gnu_cxx12_Lock_policyE2EED2Ev
FN:611,614,_ZNSt23_Sp_counted_ptr_inplaceIN7testing10OnceActionIFSt6vectorINSt7__cxx1112basic_stringIcSt11char_traitsIcESaIcEEESaIS8_EEmEE23IgnoreIncomingArgumentsINS0_8internal12ReturnActionISA_E4ImplISA_EEEESaIvELN9__gnu_cxx12_Lock_policyE2EE10_M_disposeEv
FN:611,614,_ZNSt23_Sp_counted_ptr_inplaceIN7testing10OnceActionIFSt6vectorINSt7__cxx1112basic_stringIcSt11char_traitsIcESaIcEEESaIS8_EEmEEESaIvELN9__gnu_cxx12_Lock_policyE2EE10_M_disposeEv
FN:618,623,_ZNSt23_Sp_counted_ptr_inplaceIN7testing10OnceActionIFSt6vectorINSt7__cxx1112basic_stringIcSt11char_traitsIcESaIcEEESaIS8_EEmEE23IgnoreIncomingArgumentsINS0_8internal12ReturnActionISA_E4ImplISA_EEEESaIvELN9__gnu_cxx12_Lock_policyE2EE10_M_destroyEv
FN:618,623,_ZNSt23_Sp_counted_ptr_inplaceIN7testing10OnceActionIFSt6vectorINSt7__cxx1112basic_stringIcSt11char_traitsIcESaIcEEESaIS8_EEmEEESaIvELN9__gnu_cxx12_Lock_policyE2EE10_M_destroyEv
FN:631,648,_ZNSt23_Sp_counted_ptr_inplaceIN7testing10OnceActionIFSt6vectorINSt7__cxx1112basic_stringIcSt11char_traitsIcESaIcEEESaIS8_EEmEE23IgnoreIncomingArgumentsINS0_8internal12ReturnActionISA_E4ImplISA_EEEESaIvELN9__gnu_cxx12_Lock_policyE2EE14_M_get_deleterERKSt9type_info
FN:631,648,_ZNSt23_Sp_counted_ptr_inplaceIN7testing10OnceActionIFSt6vectorINSt7__cxx1112basic_stringIcSt11char_traitsIcESaIcEEESaIS8_EEmEEESaIvELN9__gnu_cxx12_Lock_policyE2EE14_M_get_deleterERKSt9type_info
FN:650,650,_ZNSt23_Sp_counted_ptr_inplaceIN7testing10OnceActionIFSt6vectorINSt7__cxx1112basic_stringIcSt11char_traitsIcESaIcEEESaIS8_EEmEE23IgnoreIncomingArgumentsINS0_8internal12ReturnActionISA_E4ImplISA_EEEESaIvELN9__gnu_cxx12_Lock_policyE2EE6_M_ptrEv
FN:650,650,_ZNSt23_Sp_counted_ptr_inplaceIN7testing10OnceActionIFSt6vectorINSt7__cxx1112basic_stringIcSt11char_traitsIcESaIcEEESaIS8_EEmEEESaIvELN9__gnu_cxx12_Lock_policyE2EE6_M_ptrEv
FN:908,909,_ZNSt14__shared_countILN9__gnu_cxx12_Lock_policyE2EEC2Ev
FN:913,924,_ZNSt14__shared_countILN9__gnu_cxx12_Lock_policyE2EEC2IPN7testing8internal12ReturnActionISt6vectorINSt7__cxx1112basic_stringIcSt11char_traitsIcESaIcEEESaISD_EEE4ImplISF_E5StateEEET_
FN:913,924,_ZNSt14__shared_countILN9__gnu_cxx12_Lock_policyE2EEC2IPN7testing8internal16TypedExpectationIFSt6vectorINSt7__cxx1112basic_stringIcSt11char_traitsIcESaIcEEESaISD_EEmEEEEET_
FN:913,924,_ZNSt14__shared_countILN9__gnu_cxx12_Lock_policyE2EEC2IPN7testing8internal16TypedExpectationIFvRKNSt7__cxx1112basic_stringIcSt11char_traitsIcESaIcEEEEEEEET_
FN:927,929,_ZNSt14__shared_countILN9__gnu_cxx12_Lock_policyE2EEC2IPN7testing8internal12ReturnActionISt6vectorINSt7__cxx1112basic_stringIcSt11char_traitsIcESaIcEEESaISD_EEE4ImplISF_E5StateEEET_St17integral_constantIbLb0EE
FN:927,929,_ZNSt14__shared_countILN9__gnu_cxx12_Lock_policyE2EEC2IPN7testing8internal16TypedExpectationIFSt6vectorINSt7__cxx1112basic_stringIcSt11char_traitsIcESaIcEEESaISD_EEmEEEEET_St17integral_constantIbLb0EE
FN:927,929,_ZNSt14__shared_countILN9__gnu_cxx12_Lock_policyE2EEC2IPN7testing8internal16TypedExpectationIFvRKNSt7__cxx1112basic_stringIcSt11char_traitsIcESaIcEEEEEEEET_St17integral_constantIbLb0EE
FN:964,976,_ZNSt14__shared_countILN9__gnu_cxx12_Lock_policyE2EEC2IN7testing10OnceActionIFSt6vectorINSt7__cxx1112basic_stringIcSt11char_traitsIcESaIcEEESaISC_EEmEE23IgnoreIncomingArgumentsINS4_8internal12ReturnActionISE_E4ImplISE_EEEESaIvEJSN_EEERPT_St20_Sp_alloc_shared_tagIT0_EDpOT1_
FN:964,976,_ZNSt14__shared_countILN9__gnu_cxx12_Lock_policyE2EEC2IN7testing10OnceActionIFSt6vectorINSt7__cxx1112basic_stringIcSt11char_traitsIcESaIcEEESaISC_EEmEEESaIvEJSG_EEERPT_St20_Sp_alloc_shared_tagIT0_EDpOT1_
FNDA:35,_ZNSt14__shared_countILN9__gnu_cxx12_Lock_policyE2EED2Ev
FNDA:9,_ZNSt14__shared_countILN9__gnu_cxx12_Lock_policyE2EEC2ERKS2_
FNDA:6,_ZNSt14__shared_countILN9__gnu_cxx12_Lock_policyE2EEaSERKS2_
FNDA:5,_ZNSt14__shared_countILN9__gnu_cxx12_Lock_policyE2EE7_M_swapERS2_
FNDA:21,_ZNSt16_Sp_counted_baseILN9__gnu_cxx12_Lock_policyE2EEC2Ev
FNDA:0,_ZNSt16_Sp_counted_baseILN9__gnu_cxx12_Lock_policyE2EED0Ev
FNDA:21,_ZNSt16_Sp_counted_baseILN9__gnu_cxx12_Lock_policyE2EED2Ev
FNDA:1,_ZNKSt19__shared_ptr_accessIN7testing10OnceActionIFSt6vectorINSt7__cxx1112basic_stringIcSt11char_traitsIcESaIcEEESaIS8_EEmEE23IgnoreIncomingArgumentsINS0_8internal12ReturnActionISA_E4ImplISA_EEEELN9__gnu_cxx12_Lock_policyE2ELb0ELb0EEdeEv
FNDA:1,_ZNKSt19__shared_ptr_accessIN7testing10OnceActionIFSt6vectorINSt7__cxx1112basic_stringIcSt11char_traitsIcESaIcEEESaIS8_EEmEEELN9__gnu_cxx12_Lock_policyE2ELb0ELb0EEdeEv
FNDA:41,_ZNKSt19__shared_ptr_accessIKN7testing20CardinalityInterfaceELN9__gnu_cxx12_Lock_policyE2ELb0ELb0EEptEv
FNDA:1,_ZNKSt19__shared_ptr_accessIN7testing8internal12ReturnActionISt6vectorINSt7__cxx1112basic_stringIcSt11char_traitsIcESaIcEEESaIS9_EEE4ImplISB_E5StateELN9__gnu_cxx12_Lock_policyE2ELb0ELb0EEptEv
FNDA:0,_ZNKSt19__shared_ptr_accessIN7testing8internal15ExpectationBaseELN9__gnu_cxx12_Lock_policyE2ELb0ELb0EEptEv
FNDA:41,_ZNKSt19__shared_ptr_accessIKN7testing20CardinalityInterfaceELN9__gnu_cxx12_Lock_policyE2ELb0ELb0EE6_M_getEv
FNDA:1,_ZNKSt19__shared_ptr_accessIN7testing10OnceActionIFSt6vectorINSt7__cxx1112basic_stringIcSt11char_traitsIcESaIcEEESaIS8_EEmEE23IgnoreIncomingArgumentsINS0_8internal12ReturnActionISA_E4ImplISA_EEEELN9__gnu_cxx12_Lock_policyE2ELb0ELb0EE6_M_getEv
FNDA:1,_ZNKSt19__shared_ptr_accessIN7testing10OnceActionIFSt6vectorINSt7__cxx1112basic_stringIcSt11char_traitsIcESaIcEEESaIS8_EEmEEELN9__gnu_cxx12_Lock_policyE2ELb0ELb0EE6_M_getEv
FNDA:1,_ZNKSt19__shared_ptr_accessIN7testing8internal12ReturnActionISt6vectorINSt7__cxx1112basic_stringIcSt11char_traitsIcESaIcEEESaIS9_EEE4ImplISB_E5StateELN9__gnu_cxx12_Lock_policyE2ELb0ELb0EE6_M_getEv
FNDA:0,_ZNKSt19__shared_ptr_accessIN7testing8internal15ExpectationBaseELN9__gnu_cxx12_Lock_policyE2ELb0ELb0EE6_M_getEv
FNDA:0,_ZNSt16_Sp_counted_baseILN9__gnu_cxx12_Lock_policyE2EE10_M_destroyEv
FNDA:1,_ZNSt12__shared_ptrIN7testing8internal12ReturnActionISt6vectorINSt7__cxx1112basic_stringIcSt11char_traitsIcESaIcEEESaIS9_EEE4ImplISB_E5StateELN9__gnu_cxx12_Lock_policyE2EEC2ISF_vEEPT_
FNDA:1,_ZNSt12__shared_ptrIN7testing8internal15ExpectationBaseELN9__gnu_cxx12_Lock_policyE2EEC2INS1_16TypedExpectationIFSt6vectorINSt7__cxx1112basic_stringIcSt11char_traitsIcESaIcEEESaISE_EEmEEEvEEPT_
FNDA:5,_ZNSt12__shared_ptrIN7testing8internal15ExpectationBaseELN9__gnu_cxx12_Lock_policyE2EEC2INS1_16TypedExpectationIFvRKNSt7__cxx1112basic_stringIcSt11char_traitsIcESaIcEEEEEEvEEPT_
FNDA:15,_ZNSt16_Sp_counted_baseILN9__gnu_cxx12_Lock_policyE2EE15_M_add_ref_copyEv
FNDA:0,_ZNSt12__shared_ptrIN7testing10OnceActionIFSt6vectorINSt7__cxx1112basic_stringIcSt11char_traitsIcESaIcEEESaIS8_EEmEE23IgnoreIncomingArgumentsINS0_8internal12ReturnActionISA_E4ImplISA_EEEELN9__gnu_cxx12_Lock_policyE2EEC2ERKSM_
FNDA:1,_ZNSt12__shared_ptrIN7testing10OnceActionIFSt6vectorINSt7__cxx1112basic_stringIcSt11char_traitsIcESaIcEEESaIS8_EEmEEELN9__gnu_cxx12_Lock_policyE2EEC2ERKSF_
FNDA:2,_ZNSt12__shared_ptrIN7testing8internal12ReturnActionISt6vectorINSt7__cxx1112basic_stringIcSt11char_traitsIcESaIcEEESaIS9_EEE4ImplISB_E5StateELN9__gnu_cxx12_Lock_policyE2EEC2ERKSI_
FNDA:6,_ZNSt12__shared_ptrIN7testing8internal15ExpectationBaseELN9__gnu_cxx12_Lock_policyE2EEC2ERKS5_
FNDA:6,_ZNSt12__shared_ptrIKN7testing20CardinalityInterfaceELN9__gnu_cxx12_Lock_policyE2EEaSERKS5_
FNDA:12,_ZNSt12__shared_ptrIKN7testing20CardinalityInterfaceELN9__gnu_cxx12_Lock_policyE2EED2Ev
FNDA:2,_ZNSt12__shared_ptrIN7testing10OnceActionIFSt6vectorINSt7__cxx1112basic_stringIcSt11char_traitsIcESaIcEEESaIS8_EEmEE23IgnoreIncomingArgumentsINS0_8internal12ReturnActionISA_E4ImplISA_EEEELN9__gnu_cxx12_Lock_policyE2EED2Ev
FNDA:3,_ZNSt12__shared_ptrIN7testing10OnceActionIFSt6vectorINSt7__cxx1112basic_stringIcSt11char_traitsIcESaIcEEESaIS8_EEmEEELN9__gnu_cxx12_Lock_policyE2EED2Ev
FNDA:3,_ZNSt12__shared_ptrIN7testing8internal12ReturnActionISt6vectorINSt7__cxx1112basic_stringIcSt11char_traitsIcESaIcEEESaIS9_EEE4ImplISB_E5StateELN9__gnu_cxx12_Lock_policyE2EED2Ev
FNDA:15,_ZNSt12__shared_ptrIN7testing8internal15ExpectationBaseELN9__gnu_cxx12_Lock_policyE2EED2Ev
FNDA:1,_ZNSt12__shared_ptrIN7testing10OnceActionIFSt6vectorINSt7__cxx1112basic_stringIcSt11char_traitsIcESaIcEEESaIS8_EEmEE23IgnoreIncomingArgumentsINS0_8internal12ReturnActionISA_E4ImplISA_EEEELN9__gnu_cxx12_Lock_policyE2EEC2EOSM_
FNDA:1,_ZNSt12__shared_ptrIN7testing10OnceActionIFSt6vectorINSt7__cxx1112basic_stringIcSt11char_traitsIcESaIcEEESaIS8_EEmEEELN9__gnu_cxx12_Lock_policyE2EEC2EOSF_
FNDA:3,_ZNSt12__shared_ptrIN7testing8internal15ExpectationBaseELN9__gnu_cxx12_Lock_policyE2EEC2EOS5_
FNDA:41,_ZNKSt12__shared_ptrIKN7testing20CardinalityInterfaceELN9__gnu_cxx12_Lock_policyE2EE3getEv
FNDA:1,_ZNKSt12__shared_ptrIN7testing10OnceActionIFSt6vectorINSt7__cxx1112basic_stringIcSt11char_traitsIcESaIcEEESaIS8_EEmEE23IgnoreIncomingArgumentsINS0_8internal12ReturnActionISA_E4ImplISA_EEEELN9__gnu_cxx12_Lock_policyE2EE3getEv
FNDA:1,_ZNKSt12__shared_ptrIN7testing10OnceActionIFSt6vectorINSt7__cxx1112basic_stringIcSt11char_traitsIcESaIcEEESaIS8_EEmEEELN9__gnu_cxx12_Lock_policyE2EE3getEv
FNDA:1,_ZNKSt12__shared_ptrIN7testing8internal12ReturnActionISt6vectorINSt7__cxx1112basic_stringIcSt11char_traitsIcESaIcEEESaIS9_EEE4ImplISB_E5StateELN9__gnu_cxx12_Lock_policyE2EE3getEv
FNDA:12,_ZNKSt12__shared_ptrIN7testing8internal15ExpectationBaseELN9__gnu_cxx12_Lock_policyE2EE3getEv
FNDA:1,_ZNSt12__shared_ptrIN7testing10OnceActionIFSt6vectorINSt7__cxx1112basic_stringIcSt11char_traitsIcESaIcEEESaIS8_EEmEE23IgnoreIncomingArgumentsINS0_8internal12ReturnActionISA_E4ImplISA_EEEELN9__gnu_cxx12_Lock_policyE2EEC2ISaIvEJSJ_EEESt20_Sp_alloc_shared_tagIT_EDpOT0_
FNDA:1,_ZNSt12__shared_ptrIN7testing10OnceActionIFSt6vectorINSt7__cxx1112basic_stringIcSt11char_traitsIcESaIcEEESaIS8_EEmEEELN9__gnu_cxx12_Lock_policyE2EEC2ISaIvEJSC_EEESt20_Sp_alloc_shared_tagIT_EDpOT0_
FNDA:0,_ZNSt16_Sp_counted_baseILN9__gnu_cxx12_Lock_policyE2EE19_M_release_last_useEv
FNDA:1,_ZNSt12__shared_ptrIN7testing10OnceActionIFSt6vectorINSt7__cxx1112basic_stringIcSt11char_traitsIcESaIcEEESaIS8_EEmEE23IgnoreIncomingArgumentsINS0_8internal12ReturnActionISA_E4ImplISA_EEEELN9__gnu_cxx12_Lock_policyE2EE31_M_enable_shared_from_this_withISJ_SJ_EENSt9enable_ifIXntsrNSM_15__has_esft_baseIT0_vEE5valueEvE4typeEPT_
FNDA:1,_ZNSt12__shared_ptrIN7testing10OnceActionIFSt6vectorINSt7__cxx1112basic_stringIcSt11char_traitsIcESaIcEEESaIS8_EEmEEELN9__gnu_cxx12_Lock_policyE2EE31_M_enable_shared_from_this_withISC_SC_EENSt9enable_ifIXntsrNSF_15__has_esft_baseIT0_vEE5valueEvE4typeEPT_
FNDA:1,_ZNSt12__shared_ptrIN7testing8internal12ReturnActionISt6vectorINSt7__cxx1112basic_stringIcSt11char_traitsIcESaIcEEESaIS9_EEE4ImplISB_E5StateELN9__gnu_cxx12_Lock_policyE2EE31_M_enable_shared_from_this_withISF_SF_EENSt9enable_ifIXntsrNSI_15__has_esft_baseIT0_vEE5valueEvE4typeEPT_
FNDA:1,_ZNSt12__shared_ptrIN7testing8internal15ExpectationBaseELN9__gnu_cxx12_Lock_policyE2EE31_M_enable_shared_from_this_withINS1_16TypedExpectationIFSt6vectorINSt7__cxx1112basic_stringIcSt11char_traitsIcESaIcEEESaISE_EEmEEESI_EENSt9enable_ifIXntsrNS5_15__has_esft_baseIT0_vEE5valueEvE4typeEPT_
FNDA:5,_ZNSt12__shared_ptrIN7testing8internal15ExpectationBaseELN9__gnu_cxx12_Lock_policyE2EE31_M_enable_shared_from_this_withINS1_16TypedExpectationIFvRKNSt7__cxx1112basic_stringIcSt11char_traitsIcESaIcEEEEEESH_EENSt9enable_ifIXntsrNS5_15__has_esft_baseIT0_vEE5valueEvE4typeEPT_
FNDA:0,_ZNSt16_Sp_counted_baseILN9__gnu_cxx12_Lock_policyE2EE24_M_release_last_use_coldEv
FNDA:36,_ZNSt16_Sp_counted_baseILN9__gnu_cxx12_Lock_policyE2EE10_M_releaseEv
FNDA:1,_ZNSt15_Sp_counted_ptrIPN7testing8internal12ReturnActionISt6vectorINSt7__cxx1112basic_stringIcSt11char_traitsIcESaIcEEESaIS9_EEE4ImplISB_E5StateELN9__gnu_cxx12_Lock_policyE2EEC2ESG_
FNDA:1,_ZNSt15_Sp_counted_ptrIPN7testing8internal16TypedExpectationIFSt6vectorINSt7__cxx1112basic_stringIcSt11char_traitsIcESaIcEEESaIS9_EEmEEELN9__gnu_cxx12_Lock_policyE2EEC2ESE_
FNDA:5,_ZNSt15_Sp_counted_ptrIPN7testing8internal16TypedExpectationIFvRKNSt7__cxx1112basic_stringIcSt11char_traitsIcESaIcEEEEEELN9__gnu_cxx12_Lock_policyE2EEC2ESD_
FNDA:1,_ZNSt15_Sp_counted_ptrIPN7testing8internal12ReturnActionISt6vectorINSt7__cxx1112basic_stringIcSt11char_traitsIcESaIcEEESaIS9_EEE4ImplISB_E5StateELN9__gnu_cxx12_Lock_policyE2EE10_M_disposeEv
FNDA:1,_ZNSt15_Sp_counted_ptrIPN7testing8internal16TypedExpectationIFSt6vectorINSt7__cxx1112basic_stringIcSt11char_traitsIcESaIcEEESaIS9_EEmEEELN9__gnu_cxx12_Lock_policyE2EE10_M_disposeEv
FNDA:5,_ZNSt15_Sp_counted_ptrIPN7testing8internal16TypedExpectationIFvRKNSt7__cxx1112basic_stringIcSt11char_traitsIcESaIcEEEEEELN9__gnu_cxx12_Lock_policyE2EE10_M_disposeEv
FNDA:1,_ZNSt15_Sp_counted_ptrIPN7testing8internal12ReturnActionISt6vectorINSt7__cxx1112basic_stringIcSt11char_traitsIcESaIcEEESaIS9_EEE4ImplISB_E5StateELN9__gnu_cxx12_Lock_policyE2EE10_M_destroyEv
FNDA:1,_ZNSt15_Sp_counted_ptrIPN7testing8internal16TypedExpectationIFSt6vectorINSt7__cxx1112basic_stringIcSt11char_traitsIcESaIcEEESaIS9_EEmEEELN9__gnu_cxx12_Lock_policyE2EE10_M_destroyEv
FNDA:5,_ZNSt15_Sp_counted_ptrIPN7testing8internal16TypedExpectationIFvRKNSt7__cxx1112basic_stringIcSt11char_traitsIcESaIcEEEEEELN9__gnu_cxx12_Lock_policyE2EE10_M_destroyEv
FNDA:0,_ZNSt15_Sp_counted_ptrIPN7testing8internal12ReturnActionISt6vectorINSt7__cxx1112basic_stringIcSt11char_traitsIcESaIcEEESaIS9_EEE4ImplISB_E5StateELN9__gnu_cxx12_Lock_policyE2EE14_M_get_deleterERKSt9type_info
FNDA:0,_ZNSt15_Sp_counted_ptrIPN7testing8internal16TypedExpectationIFSt6vectorINSt7__cxx1112basic_stringIcSt11char_traitsIcESaIcEEESaIS9_EEmEEELN9__gnu_cxx12_Lock_policyE2EE14_M_get_deleterERKSt9type_info
FNDA:0,_ZNSt15_Sp_counted_ptrIPN7testing8internal16TypedExpectationIFvRKNSt7__cxx1112basic_stringIcSt11char_traitsIcESaIcEEEEEELN9__gnu_cxx12_Lock_policyE2EE14_M_get_deleterERKSt9type_info
FNDA:2,_ZNSt14_Sp_ebo_helperILi0ESaIvELb1EEC2ERKS0_
FNDA:4,_ZNSt14_Sp_ebo_helperILi0ESaIvELb1EE6_S_getERS1_
FNDA:0,_ZNSt19_Sp_make_shared_tag5_S_tiEv
FNDA:1,_ZNSt23_Sp_counted_ptr_inplaceIN7testing10OnceActionIFSt6vectorINSt7__cxx1112basic_stringIcSt11char_traitsIcESaIcEEESaIS8_EEmEE23IgnoreIncomingArgumentsINS0_8internal12ReturnActionISA_E4ImplISA_EEEESaIvELN9__gnu_cxx12_Lock_policyE2EE5_ImplC2ESK_
FNDA:1,_ZNSt23_Sp_counted_ptr_inplaceIN7testing10OnceActionIFSt6vectorINSt7__cxx1112basic_stringIcSt11char_traitsIcESaIcEEESaIS8_EEmEEESaIvELN9__gnu_cxx12_Lock_policyE2EE5_ImplC2ESD_
FNDA:2,_ZNSt23_Sp_counted_ptr_inplaceIN7testing10OnceActionIFSt6vectorINSt7__cxx1112basic_stringIcSt11char_traitsIcESaIcEEESaIS8_EEmEE23IgnoreIncomingArgumentsINS0_8internal12ReturnActionISA_E4ImplISA_EEEESaIvELN9__gnu_cxx12_Lock_policyE2EE5_Impl8_M_allocEv
FNDA:2,_ZNSt23_Sp_counted_ptr_inplaceIN7testing10OnceActionIFSt6vectorINSt7__cxx1112basic_stringIcSt11char_traitsIcESaIcEEESaIS8_EEmEEESaIvELN9__gnu_cxx12_Lock_policyE2EE5_Impl8_M_allocEv
FNDA:1,_ZNSt23_Sp_counted_ptr_inplaceIN7testing10OnceActionIFSt6vectorINSt7__cxx1112basic_stringIcSt11char_traitsIcESaIcEEESaIS8_EEmEE23IgnoreIncomingArgumentsINS0_8internal12ReturnActionISA_E4ImplISA_EEEESaIvELN9__gnu_cxx12_Lock_policyE2EEC2IJSJ_EEESK_DpOT_
FNDA:1,_ZNSt23_Sp_counted_ptr_inplaceIN7testing10OnceActionIFSt6vectorINSt7__cxx1112basic_stringIcSt11char_traitsIcESaIcEEESaIS8_EEmEEESaIvELN9__gnu_cxx12_Lock_policyE2EEC2IJSC_EEESD_DpOT_
FNDA:0,_ZNSt23_Sp_counted_ptr_inplaceIN7testing10OnceActionIFSt6vectorINSt7__cxx1112basic_stringIcSt11char_traitsIcESaIcEEESaIS8_EEmEE23IgnoreIncomingArgumentsINS0_8internal12ReturnActionISA_E4ImplISA_EEEESaIvELN9__gnu_cxx12_Lock_policyE2EED0Ev
FNDA:1,_ZNSt23_Sp_counted_ptr_inplaceIN7testing10OnceActionIFSt6vectorINSt7__cxx1112basic_stringIcSt11char_traitsIcESaIcEEESaIS8_EEmEE23IgnoreIncomingArgumentsINS0_8internal12ReturnActionISA_E4ImplISA_EEEESaIvELN9__gnu_cxx12_Lock_policyE2EED2Ev
FNDA:0,_ZNSt23_Sp_counted_ptr_inplaceIN7testing10OnceActionIFSt6vectorINSt7__cxx1112basic_stringIcSt11char_traitsIcESaIcEEESaIS8_EEmEEESaIvELN9__gnu_cxx12_Lock_policyE2EED0Ev
FNDA:1,_ZNSt23_Sp_counted_ptr_inplaceIN7testing10OnceActionIFSt6vectorINSt7__cxx1112basic_stringIcSt11char_traitsIcESaIcEEESaIS8_EEmEEESaIvELN9__gnu_cxx12_Lock_policyE2EED2Ev
FNDA:1,_ZNSt23_Sp_counted_ptr_inplaceIN7testing10OnceActionIFSt6vectorINSt7__cxx1112basic_stringIcSt11char_traitsIcESaIcEEESaIS8_EEmEE23IgnoreIncomingArgumentsINS0_8internal12ReturnActionISA_E4ImplISA_EEEESaIvELN9__gnu_cxx12_Lock_policyE2EE10_M_disposeEv
FNDA:1,_ZNSt23_Sp_counted_ptr_inplaceIN7testing10OnceActionIFSt6vectorINSt7__cxx1112basic_stringIcSt11char_traitsIcESaIcEEESaIS8_EEmEEESaIvELN9__gnu_cxx12_Lock_policyE2EE10_M_disposeEv
FNDA:1,_ZNSt23_Sp_counted_ptr_inplaceIN7testing10OnceActionIFSt6vectorINSt7__cxx1112basic_stringIcSt11char_traitsIcESaIcEEESaIS8_EEmEE23IgnoreIncomingArgumentsINS0_8internal12ReturnActionISA_E4ImplISA_EEEESaIvELN9__gnu_cxx12_Lock_policyE2EE10_M_destroyEv
FNDA:1,_ZNSt23_Sp_counted_ptr_inplaceIN7testing10OnceActionIFSt6vectorINSt7__cxx1112basic_stringIcSt11char_traitsIcESaIcEEESaIS8_EEmEEESaIvELN9__gnu_cxx12_Lock_policyE2EE10_M_destroyEv
FNDA:0,_ZNSt23_Sp_counted_ptr_inplaceIN7testing10OnceActionIFSt6vectorINSt7__cxx1112basic_stringIcSt11char_traitsIcESaIcEEESaIS8_EEmEE23IgnoreIncomingArgumentsINS0_8internal12ReturnActionISA_E4ImplISA_EEEESaIvELN9__gnu_cxx12_Lock_policyE2EE14_M_get_deleterERKSt9type_info
FNDA:0,_ZNSt23_Sp_counted_ptr_inplaceIN7testing10OnceActionIFSt6vectorINSt7__cxx1112basic_stringIcSt11char_traitsIcESaIcEEESaIS8_EEmEEESaIvELN9__gnu_cxx12_Lock_policyE2EE14_M_get_deleterERKSt9type_info
FNDA:3,_ZNSt23_Sp_counted_ptr_inplaceIN7testing10OnceActionIFSt6vectorINSt7__cxx1112basic_stringIcSt11char_traitsIcESaIcEEESaIS8_EEmEE23IgnoreIncomingArgumentsINS0_8internal12ReturnActionISA_E4ImplISA_EEEESaIvELN9__gnu_cxx12_Lock_policyE2EE6_M_ptrEv
FNDA:3,_ZNSt23_Sp_counted_ptr_inplaceIN7testing10OnceActionIFSt6vectorINSt7__cxx1112basic_stringIcSt11char_traitsIcESaIcEEESaIS8_EEmEEESaIvELN9__gnu_cxx12_Lock_policyE2EE6_M_ptrEv
FNDA:5,_ZNSt14__shared_countILN9__gnu_cxx12_Lock_policyE2EEC2Ev
FNDA:1,_ZNSt14__shared_countILN9__gnu_cxx12_Lock_policyE2EEC2IPN7testing8internal12ReturnActionISt6vectorINSt7__cxx1112basic_stringIcSt11char_traitsIcESaIcEEESaISD_EEE4ImplISF_E5StateEEET_
FNDA:1,_ZNSt14__shared_countILN9__gnu_cxx12_Lock_policyE2EEC2IPN7testing8internal16TypedExpectationIFSt6vectorINSt7__cxx1112basic_stringIcSt11char_traitsIcESaIcEEESaISD_EEmEEEEET_
FNDA:5,_ZNSt14__shared_countILN9__gnu_cxx12_Lock_policyE2EEC2IPN7testing8internal16TypedExpectationIFvRKNSt7__cxx1112basic_stringIcSt11char_traitsIcESaIcEEEEEEEET_
FNDA:1,_ZNSt14__shared_countILN9__gnu_cxx12_Lock_policyE2EEC2IPN7testing8internal12ReturnActionISt6vectorINSt7__cxx1112basic_stringIcSt11char_traitsIcESaIcEEESaISD_EEE4ImplISF_E5StateEEET_St17integral_constantIbLb0EE
FNDA:1,_ZNSt14__shared_countILN9__gnu_cxx12_Lock_policyE2EEC2IPN7testing8internal16TypedExpectationIFSt6vectorINSt7__cxx1112basic_stringIcSt11char_traitsIcESaIcEEESaISD_EEmEEEEET_St17integral_constantIbLb0EE
FNDA:5,_ZNSt14__shared_countILN9__gnu_cxx12_Lock_policyE2EEC2IPN7testing8internal16TypedExpectationIFvRKNSt7__cxx1112basic_stringIcSt11char_traitsIcESaIcEEEEEEEET_St17integral_constantIbLb0EE
FNDA:1,_ZNSt14__shared_countILN9__gnu_cxx12_Lock_policyE2EEC2IN7testing10OnceActionIFSt6vectorINSt7__cxx1112basic_stringIcSt11char_traitsIcESaIcEEESaISC_EEmEE23IgnoreIncomingArgumentsINS4_8internal12ReturnActionISE_E4ImplISE_EEEESaIvEJSN_EEERPT_St20_Sp_alloc_shared_tagIT0_EDpOT1_
FNDA:1,_ZNSt14__shared_countILN9__gnu_cxx12_Lock_policyE2EEC2IN7testing10OnceActionIFSt6vectorINSt7__cxx1112basic_stringIcSt11char_traitsIcESaIcEEESaISC_EEmEEESaIvEJSG_EEERPT_St20_Sp_alloc_shared_tagIT0_EDpOT1_
FNF:92
FNH:77
DA:129,21
DA:130,21
DA:133,21
DA:134,21
DA:143,0
DA:144,0
DA:151,15
DA:152,15
DA:172,0
DA:175,0
DA:187,0
DA:188,0
DA:191,0
DA:193,0
DA:198,0
DA:199,0
DA:317,36
DA:321,36
DA:324,36
DA:328,36
DA:331,36
DA:332,36
DA:333,36
DA:334,36
DA:337,36
DA:343,21
DA:346,21
DA:347,21
DA:348,21
DA:350,30
DA:351,0
DA:353,0
DA:354,0
DA:423,7
DA:424,7
DA:427,7
DA:428,7
DA:431,7
DA:432,7
DA:435,0
DA:436,0
DA:470,2
DA:474,4
DA:564,0
DA:567,0
DA:587,2
DA:589,4
DA:599,2
DA:600,2
DA:604,2
DA:606,2
DA:608,2
DA:611,2
DA:613,2
DA:614,2
DA:618,2
DA:620,2
DA:621,2
DA:622,2
DA:623,2
DA:631,0
DA:633,0
DA:638,0
DA:639,0
DA:641,0
DA:646,0
DA:647,0
DA:650,6
DA:908,5
DA:909,5
DA:913,7
DA:917,7
DA:919,0
DA:921,0
DA:922,0
DA:924,7
DA:927,7
DA:928,7
DA:929,7
DA:964,2
DA:968,2
DA:969,2
DA:970,2
DA:971,2
DA:973,2
DA:974,2
DA:975,2
DA:976,4
DA:1068,35
DA:1070,35
DA:1071,30
DA:1072,35
DA:1074,9
DA:1075,9
DA:1077,9
DA:1078,9
DA:1079,9
DA:1082,6
DA:1084,6
DA:1085,6
DA:1087,6
DA:1088,6
DA:1089,6
DA:1090,6
DA:1091,6
DA:1093,6
DA:1097,5
DA:1099,5
DA:1100,5
DA:1101,5
DA:1102,5
DA:1347,2
DA:1349,2
DA:1350,2
DA:1354,42
DA:1357,42
DA:1362,44
DA:1363,44
DA:1468,7
DA:1469,7
DA:1473,7
DA:1474,7
DA:1522,9
DA:1523,6
DA:1524,35
DA:1531,5
DA:1532,5
DA:1534,5
DA:1535,5
DA:1536,5
DA:1665,56
DA:1666,56
DA:1711,2
DA:1712,2
DA:1713,2
DA:1765,9
DA:1766,9
LF:137
LH:110
end_of_record
TN:
SF:/usr/include/c++/13/bits/std_function.h
FN:134,143,_ZNSt14_Function_base13_Base_managerIN7testing10OnceActionIFSt6vectorINSt7__cxx1112basic_stringIcSt11char_traitsIcESaIcEEESaIS9_EEmEE18StdFunctionAdaptorINSD_23IgnoreIncomingArgumentsINS1_8internal12ReturnActionISB_E4ImplISB_EEEEEEE14_M_get_pointerERKSt9_Any_data
FN:134,143,_ZNSt14_Function_base13_Base_managerIN7testing8internal16TypedExpectationIFSt6vectorINSt7__cxx1112basic_stringIcSt11char_traitsIcESaIcEEESaISA_EEmEE13ActionAdaptorEE14_M_get_pointerERKSt9_Any_data
FN:158,162,_ZNSt14_Function_base13_Base_managerIN7testing10OnceActionIFSt6vectorINSt7__cxx1112basic_stringIcSt11char_traitsIcESaIcEEESaIS9_EEmEE18StdFunctionAdaptorINSD_23IgnoreIncomingArgumentsINS1_8internal12ReturnActionISB_E4ImplISB_EEEEEEE9_M_createIRKSM_EEvRSt9_Any_dataOT_St17integral_constantIbLb0EE
FN:158,162,_ZNSt14_Function_base13_Base_managerIN7testing10OnceActionIFSt6vectorINSt7__cxx1112basic_stringIcSt11char_traitsIcESaIcEEESaIS9_EEmEE18StdFunctionAdaptorINSD_23IgnoreIncomingArgumentsINS1_8internal12ReturnActionISB_E4ImplISB_EEEEEEE9_M_createISM_EEvRSt9_Any_dataOT_St17integral_constantIbLb0EE
FN:158,162,_ZNSt14_Function_base13_Base_managerIN7testing8internal16TypedExpectationIFSt6vectorINSt7__cxx1112basic_stringIcSt11char_traitsIcESaIcEEESaISA_EEmEE13ActionAdaptorEE9_M_createIRKSF_EEvRSt9_Any_dataOT_St17integral_constantIbLb0EE
FN:158,162,_ZNSt14_Function_base13_Base_managerIN7testing8internal16TypedExpectationIFSt6vectorINSt7__cxx1112basic_stringIcSt11char_traitsIcESaIcEEESaISA_EEmEE13ActionAdaptorEE9_M_createISF_EEvRSt9_Any_dataOT_St17integral_constantIbLb0EE
FN:173,176,_ZNSt14_Function_base13_Base_managerIN7testing10OnceActionIFSt6vectorINSt7__cxx1112basic_stringIcSt11char_traitsIcESaIcEEESaIS9_EEmEE18StdFunctionAdaptorINSD_23IgnoreIncomingArgumentsINS1_8internal12ReturnActionISB_E4ImplISB_EEEEEEE10_M_destroyERSt9_Any_dataSt17integral_constantIbLb0EE
FN:173,176,_ZNSt14_Function_base13_Base_managerIN7testing8internal16TypedExpectationIFSt6vectorINSt7__cxx1112basic_stringIcSt11char_traitsIcESaIcEEESaISA_EEmEE13ActionAdaptorEE10_M_destroyERSt9_Any_dataSt17integral_constantIbLb0EE
FN:180,207,_ZNSt14_Function_base13_Base_managerIN7testing10OnceActionIFSt6vectorINSt7__cxx1112basic_stringIcSt11char_traitsIcESaIcEEESaIS9_EEmEE18StdFunctionAdaptorINSD_23IgnoreIncomingArgumentsINS1_8internal12ReturnActionISB_E4ImplISB_EEEEEEE10_M_managerERSt9_Any_dataRKSO_St18_Manager_operation
FN:180,207,_ZNSt14_Function_base13_Base_managerIN7testing8internal16TypedExpectationIFSt6vectorINSt7__cxx1112basic_stringIcSt11char_traitsIcESaIcEEESaISA_EEmEE13ActionAdaptorEE10_M_managerERSt9_Any_dataRKSH_St18_Manager_operation
FN:211,216,_ZNSt14_Function_base13_Base_managerIN7testing10OnceActionIFSt6vectorINSt7__cxx1112basic_stringIcSt11char_traitsIcESaIcEEESaIS9_EEmEE18StdFunctionAdaptorINSD_23IgnoreIncomingArgumentsINS1_8internal12ReturnActionISB_E4ImplISB_EEEEEEE15_M_init_functorIRKSM_EEvRSt9_Any_dataOT_
FN:211,216,_ZNSt14_Function_base13_Base_managerIN7testing10OnceActionIFSt6vectorINSt7__cxx1112basic_stringIcSt11char_traitsIcESaIcEEESaIS9_EEmEE18StdFunctionAdaptorINSD_23IgnoreIncomingArgumentsINS1_8internal12ReturnActionISB_E4ImplISB_EEEEEEE15_M_init_functorISM_EEvRSt9_Any_dataOT_
FN:211,216,_ZNSt14_Function_base13_Base_managerIN7testing8internal16TypedExpectationIFSt6vectorINSt7__cxx1112basic_stringIcSt11char_traitsIcESaIcEEESaISA_EEmEE13ActionAdaptorEE15_M_init_functorIRKSF_EEvRSt9_Any_dataOT_
FN:211,216,_ZNSt14_Function_base13_Base_managerIN7testing8internal16TypedExpectationIFSt6vectorINSt7__cxx1112basic_stringIcSt11char_traitsIcESaIcEEESaISA_EEmEE13ActionAdaptorEE15_M_init_functorISF_EEvRSt9_Any_dataOT_
FN:235,236,_ZNSt14_Function_base13_Base_managerIN7testing10OnceActionIFSt6vectorINSt7__cxx1112basic_stringIcSt11char_traitsIcESaIcEEESaIS9_EEmEE18StdFunctionAdaptorINSD_23IgnoreIncomingArgumentsINS1_8internal12ReturnActionISB_E4ImplISB_EEEEEEE21_M_not_empty_functionISM_EEbRKT_
FN:235,236,_ZNSt14_Function_base13_Base_managerIN7testing8internal16TypedExpectationIFSt6vectorINSt7__cxx1112basic_stringIcSt11char_traitsIcESaIcEEESaISA_EEmEE13ActionAdaptorEE21_M_not_empty_functionISF_EEbRKT_
FN:239,239,_ZNSt14_Function_baseC2Ev
FN:241,245,_ZNSt14_Function_baseD2Ev
FN:247,247,_ZNKSt14_Function_base8_M_emptyEv
FN:267,285,_ZNSt17_Function_handlerIFSt6vectorINSt7__cxx1112basic_stringIcSt11char_traitsIcESaIcEEESaIS6_EEmEN7testing10OnceActionIS9_E18StdFunctionAdaptorINSC_23IgnoreIncomingArgumentsINSA_8internal12ReturnActionIS8_E4ImplIS8_EEEEEEE10_M_managerERSt9_Any_dataRKSN_St18_Manager_operation
FN:267,285,_ZNSt17_Function_handlerIFSt6vectorINSt7__cxx1112basic_stringIcSt11char_traitsIcESaIcEEESaIS6_EEmEN7testing8internal16TypedExpectationIS9_E13ActionAdaptorEE10_M_managerERSt9_Any_dataRKSG_St18_Manager_operation
FN:288,292,_ZNSt17_Function_handlerIFSt6vectorINSt7__cxx1112basic_stringIcSt11char_traitsIcESaIcEEESaIS6_EEmEN7testing10OnceActionIS9_E18StdFunctionAdaptorINSC_23IgnoreIncomingArgumentsINSA_8internal12ReturnActionIS8_E4ImplIS8_EEEEEEE9_M_invokeERKSt9_Any_dataOm
FN:288,292,_ZNSt17_Function_handlerIFSt6vectorINSt7__cxx1112basic_stringIcSt11char_traitsIcESaIcEEESaIS6_EEmEN7testing8internal16TypedExpectationIS9_E13ActionAdaptorEE9_M_invokeERKSt9_Any_dataOm
FN:368,369,_ZNSt8functionIFSt6vectorINSt7__cxx1112basic_stringIcSt11char_traitsIcESaIcEEESaIS6_EEmEEC2Ev
FN:368,369,_ZNSt8functionIFvRKNSt7__cxx1112basic_stringIcSt11char_traitsIcESaIcEEEEEC2Ev
FN:386,395,_ZNSt8functionIFSt6vectorINSt7__cxx1112basic_stringIcSt11char_traitsIcESaIcEEESaIS6_EEmEEC2ERKSA_
FN:386,395,_ZNSt8functionIFvRKNSt7__cxx1112basic_stringIcSt11char_traitsIcESaIcEEEEEC2ERKS9_
FN:404,414,_ZNSt8functionIFSt6vectorINSt7__cxx1112basic_stringIcSt11char_traitsIcESaIcEEESaIS6_EEmEEC2EOSA_
FN:435,454,_ZNSt8functionIFSt6vectorINSt7__cxx1112basic_stringIcSt11char_traitsIcESaIcEEESaIS6_EEmEEC2IN7testing10OnceActionIS9_E18StdFunctionAdaptorINSE_23IgnoreIncomingArgumentsINSC_8internal12ReturnActionIS8_E4ImplIS8_EEEEEEvEEOT_
FN:435,454,_ZNSt8functionIFSt6vectorINSt7__cxx1112basic_stringIcSt11char_traitsIcESaIcEEESaIS6_EEmEEC2IN7testing8internal16TypedExpectationIS9_E13ActionAdaptorEvEEOT_
FN:531,536,_ZNSt8functionIFSt6vectorINSt7__cxx1112basic_stringIcSt11char_traitsIcESaIcEEESaIS6_EEmEEaSIN7testing8internal16TypedExpectationIS9_E13ActionAdaptorEEENSt9enable_ifIXsrNSA_9_CallableIT_NSH_IXntsrSt7is_sameINSt9remove_cvINSt16remove_referenceISJ_E4typeEE4typeESA_E5valueESt5decayISJ_EE4type4typeESt15__invoke_resultIRSW_JmEEEE5valueERSA_E4typeEOSJ_
FN:556,561,_ZNSt8functionIFSt6vectorINSt7__cxx1112basic_stringIcSt11char_traitsIcESaIcEEESaIS6_EEmEE4swapERSA_
FN:573,574,_ZNKSt8functionIFSt6vectorINSt7__cxx1112basic_stringIcSt11char_traitsIcESaIcEEESaIS6_EEmEEcvbEv
FN:573,574,_ZNKSt8functionIFvRKNSt7__cxx1112basic_stringIcSt11char_traitsIcESaIcEEEEEcvbEv
FN:587,592,_ZNKSt8functionIFSt6vectorINSt7__cxx1112basic_stringIcSt11char_traitsIcESaIcEEESaIS6_EEmEEclEm
FN:587,592,_ZNKSt8functionIFvRKNSt7__cxx1112basic_stringIcSt11char_traitsIcESaIcEEEEEclES7_
FN:737,738,_ZSteqISt6vectorINSt7__cxx1112basic_stringIcSt11char_traitsIcESaIcEEESaIS6_EEJmEEbRKSt8functionIFT_DpT0_EEDn
FN:737,738,_ZSteqIvJRKNSt7__cxx1112basic_stringIcSt11char_traitsIcESaIcEEEEEbRKSt8functionIFT_DpT0_EEDn
FN:85,85,_ZNSt9_Any_data9_M_accessEv
FN:86,86,_ZNKSt9_Any_data9_M_accessEv
FN:90,91,_ZNSt9_Any_data9_M_accessIPKSt9type_infoEERT_v
FN:90,91,_ZNSt9_Any_data9_M_accessIPN7testing10OnceActionIFSt6vectorINSt7__cxx1112basic_stringIcSt11char_traitsIcESaIcEEESaIS9_EEmEE18StdFunctionAdaptorINSD_23IgnoreIncomingArgumentsINS1_8internal12ReturnActionISB_E4ImplISB_EEEEEEEERT_v
FN:90,91,_ZNSt9_Any_data9_M_accessIPN7testing8internal16TypedExpectationIFSt6vectorINSt7__cxx1112basic_stringIcSt11char_traitsIcESaIcEEESaISA_EEmEE13ActionAdaptorEEERT_v
FN:95,96,_ZNKSt9_Any_data9_M_accessIPN7testing10OnceActionIFSt6vectorINSt7__cxx1112basic_stringIcSt11char_traitsIcESaIcEEESaIS9_EEmEE18StdFunctionAdaptorINSD_23IgnoreIncomingArgumentsINS1_8internal12ReturnActionISB_E4ImplISB_EEEEEEEERKT_v
FN:95,96,_ZNKSt9_Any_data9_M_accessIPN7testing8internal16TypedExpectationIFSt6vectorINSt7__cxx1112basic_stringIcSt11char_traitsIcESaIcEEESaISA_EEmEE13ActionAdaptorEEERKT_v
FNDA:1,_ZNSt14_Function_base13_Base_managerIN7testing10OnceActionIFSt6vectorINSt7__cxx1112basic_stringIcSt11char_traitsIcESaIcEEESaIS9_EEmEE18StdFunctionAdaptorINSD_23IgnoreIncomingArgumentsINS1_8internal12ReturnActionISB_E4ImplISB_EEEEEEE14_M_get_pointerERKSt9_Any_data
FNDA:2,_ZNSt14_Function_base13_Base_managerIN7testing8internal16TypedExpectationIFSt6vectorINSt7__cxx1112basic_stringIcSt11char_traitsIcESaIcEEESaISA_EEmEE13ActionAdaptorEE14_M_get_pointerERKSt9_Any_data
FNDA:0,_ZNSt14_Function_base13_Base_managerIN7testing10OnceActionIFSt6vectorINSt7__cxx1112basic_stringIcSt11char_traitsIcESaIcEEESaIS9_EEmEE18StdFunctionAdaptorINSD_23IgnoreIncomingArgumentsINS1_8internal12ReturnActionISB_E4ImplISB_EEEEEEE9_M_createIRKSM_EEvRSt9_Any_dataOT_St17integral_constantIbLb0EE
FNDA:1,_ZNSt14_Function_base13_Base_managerIN7testing10OnceActionIFSt6vectorINSt7__cxx1112basic_stringIcSt11char_traitsIcESaIcEEESaIS9_EEmEE18StdFunctionAdaptorINSD_23IgnoreIncomingArgumentsINS1_8internal12ReturnActionISB_E4ImplISB_EEEEEEE9_M_createISM_EEvRSt9_Any_dataOT_St17integral_constantIbLb0EE
FNDA:1,_ZNSt14_Function_base13_Base_managerIN7testing8internal16TypedExpectationIFSt6vectorINSt7__cxx1112basic_stringIcSt11char_traitsIcESaIcEEESaISA_EEmEE13ActionAdaptorEE9_M_createIRKSF_EEvRSt9_Any_dataOT_St17integral_constantIbLb0EE
FNDA:1,_ZNSt14_Function_base13_Base_managerIN7testing8internal16TypedExpectationIFSt6vectorINSt7__cxx1112basic_stringIcSt11char_traitsIcESaIcEEESaISA_EEmEE13ActionAdaptorEE9_M_createISF_EEvRSt9_Any_dataOT_St17integral_constantIbLb0EE
FNDA:1,_ZNSt14_Function_base13_Base_managerIN7testing10OnceActionIFSt6vectorINSt7__cxx1112basic_stringIcSt11char_traitsIcESaIcEEESaIS9_EEmEE18StdFunctionAdaptorINSD_23IgnoreIncomingArgumentsINS1_8internal12ReturnActionISB_E4ImplISB_EEEEEEE10_M_destroyERSt9_Any_dataSt17integral_constantIbLb0EE
FNDA:2,_ZNSt14_Function_base13_Base_managerIN7testing8internal16TypedExpectationIFSt6vectorINSt7__cxx1112basic_stringIcSt11char_traitsIcESaIcEEESaISA_EEmEE13ActionAdaptorEE10_M_destroyERSt9_Any_dataSt17integral_constantIbLb0EE
FNDA:1,_ZNSt14_Function_base13_Base_managerIN7testing10OnceActionIFSt6vectorINSt7__cxx1112basic_stringIcSt11char_traitsIcESaIcEEESaIS9_EEmEE18StdFunctionAdaptorINSD_23IgnoreIncomingArgumentsINS1_8internal12ReturnActionISB_E4ImplISB_EEEEEEE10_M_managerERSt9_Any_dataRKSO_St18_Manager_operation
FNDA:3,_ZNSt14_Function_base13_Base_managerIN7testing8internal16TypedExpectationIFSt6vectorINSt7__cxx1112basic_stringIcSt11char_traitsIcESaIcEEESaISA_EEmEE13ActionAdaptorEE10_M_managerERSt9_Any_dataRKSH_St18_Manager_operation
FNDA:0,_ZNSt14_Function_base13_Base_managerIN7testing10OnceActionIFSt6vectorINSt7__cxx1112basic_stringIcSt11char_traitsIcESaIcEEESaIS9_EEmEE18StdFunctionAdaptorINSD_23IgnoreIncomingArgumentsINS1_8internal12ReturnActionISB_E4ImplISB_EEEEEEE15_M_init_functorIRKSM_EEvRSt9_Any_dataOT_
FNDA:1,_ZNSt14_Function_base13_Base_managerIN7testing10OnceActionIFSt6vectorINSt7__cxx1112basic_stringIcSt11char_traitsIcESaIcEEESaIS9_EEmEE18StdFunctionAdaptorINSD_23IgnoreIncomingArgumentsINS1_8internal12ReturnActionISB_E4ImplISB_EEEEEEE15_M_init_functorISM_EEvRSt9_Any_dataOT_
FNDA:1,_ZNSt14_Function_base13_Base_managerIN7testing8internal16TypedExpectationIFSt6vectorINSt7__cxx1112basic_stringIcSt11char_traitsIcESaIcEEESaISA_EEmEE13ActionAdaptorEE15_M_init_functorIRKSF_EEvRSt9_Any_dataOT_
FNDA:1,_ZNSt14_Function_base13_Base_managerIN7testing8internal16TypedExpectationIFSt6vectorINSt7__cxx1112basic_stringIcSt11char_traitsIcESaIcEEESaISA_EEmEE13ActionAdaptorEE15_M_init_functorISF_EEvRSt9_Any_dataOT_
FNDA:1,_ZNSt14_Function_base13_Base_managerIN7testing10OnceActionIFSt6vectorINSt7__cxx1112basic_stringIcSt11char_traitsIcESaIcEEESaIS9_EEmEE18StdFunctionAdaptorINSD_23IgnoreIncomingArgumentsINS1_8internal12ReturnActionISB_E4ImplISB_EEEEEEE21_M_not_empty_functionISM_EEbRKT_
FNDA:1,_ZNSt14_Function_base13_Base_managerIN7testing8internal16TypedExpectationIFSt6vectorINSt7__cxx1112basic_stringIcSt11char_traitsIcESaIcEEESaISA_EEmEE13ActionAdaptorEE21_M_not_empty_functionISF_EEbRKT_
FNDA:12,_ZNSt14_Function_baseC2Ev
FNDA:12,_ZNSt14_Function_baseD2Ev
FNDA:12,_ZNKSt14_Function_base8_M_emptyEv
FNDA:1,_ZNSt17_Function_handlerIFSt6vectorINSt7__cxx1112basic_stringIcSt11char_traitsIcESaIcEEESaIS6_EEmEN7testing10OnceActionIS9_E18StdFunctionAdaptorINSC_23IgnoreIncomingArgumentsINSA_8internal12ReturnActionIS8_E4ImplIS8_EEEEEEE10_M_managerERSt9_Any_dataRKSN_St18_Manager_operation
FNDA:3,_ZNSt17_Function_handlerIFSt6vectorINSt7__cxx1112basic_stringIcSt11char_traitsIcESaIcEEESaIS6_EEmEN7testing8internal16TypedExpectationIS9_E13ActionAdaptorEE10_M_managerERSt9_Any_dataRKSG_St18_Manager_operation
FNDA:1,_ZNSt17_Function_handlerIFSt6vectorINSt7__cxx1112basic_stringIcSt11char_traitsIcESaIcEEESaIS6_EEmEN7testing10OnceActionIS9_E18StdFunctionAdaptorINSC_23IgnoreIncomingArgumentsINSA_8internal12ReturnActionIS8_E4ImplIS8_EEEEEEE9_M_invokeERKSt9_Any_dataOm
FNDA:1,_ZNSt17_Function_handlerIFSt6vectorINSt7__cxx1112basic_stringIcSt11char_traitsIcESaIcEEESaIS6_EEmEN7testing8internal16TypedExpectationIS9_E13ActionAdaptorEE9_M_invokeERKSt9_Any_dataOm
FNDA:2,_ZNSt8functionIFSt6vectorINSt7__cxx1112basic_stringIcSt11char_traitsIcESaIcEEESaIS6_EEmEEC2Ev
FNDA:5,_ZNSt8functionIFvRKNSt7__cxx1112basic_stringIcSt11char_traitsIcESaIcEEEEEC2Ev
FNDA:1,_ZNSt8functionIFSt6vectorINSt7__cxx1112basic_stringIcSt11char_traitsIcESaIcEEESaIS6_EEmEEC2ERKSA_
FNDA:0,_ZNSt8functionIFvRKNSt7__cxx1112basic_stringIcSt11char_traitsIcESaIcEEEEEC2ERKS9_
FNDA:2,_ZNSt8functionIFSt6vectorINSt7__cxx1112basic_stringIcSt11char_traitsIcESaIcEEESaIS6_EEmEEC2EOSA_
FNDA:1,_ZNSt8functionIFSt6vectorINSt7__cxx1112basic_stringIcSt11char_traitsIcESaIcEEESaIS6_EEmEEC2IN7testing10OnceActionIS9_E18StdFunctionAdaptorINSE_23IgnoreIncomingArgumentsINSC_8internal12ReturnActionIS8_E4ImplIS8_EEEEEEvEEOT_
FNDA:1,_ZNSt8functionIFSt6vectorINSt7__cxx1112basic_stringIcSt11char_traitsIcESaIcEEESaIS6_EEmEEC2IN7testing8internal16TypedExpectationIS9_E13ActionAdaptorEvEEOT_
FNDA:1,_ZNSt8functionIFSt6vectorINSt7__cxx1112basic_stringIcSt11char_traitsIcESaIcEEESaIS6_EEmEEaSIN7testing8internal16TypedExpectationIS9_E13ActionAdaptorEEENSt9enable_ifIXsrNSA_9_CallableIT_NSH_IXntsrSt7is_sameINSt9remove_cvINSt16remove_referenceISJ_E4typeEE4typeESA_E5valueESt5decayISJ_EE4type4typeESt15__invoke_resultIRSW_JmEEEE5valueERSA_E4typeEOSJ_
FNDA:1,_ZNSt8functionIFSt6vectorINSt7__cxx1112basic_stringIcSt11char_traitsIcESaIcEEESaIS6_EEmEE4swapERSA_
FNDA:5,_ZNKSt8functionIFSt6vectorINSt7__cxx1112basic_stringIcSt11char_traitsIcESaIcEEESaIS6_EEmEEcvbEv
FNDA:5,_ZNKSt8functionIFvRKNSt7__cxx1112basic_stringIcSt11char_traitsIcESaIcEEEEEcvbEv
FNDA:2,_ZNKSt8functionIFSt6vectorINSt7__cxx1112basic_stringIcSt11char_traitsIcESaIcEEESaIS6_EEmEEclEm
FNDA:0,_ZNKSt8functionIFvRKNSt7__cxx1112basic_stringIcSt11char_traitsIcESaIcEEEEEclES7_
FNDA:2,_ZSteqISt6vectorINSt7__cxx1112basic_stringIcSt11char_traitsIcESaIcEEESaIS6_EEJmEEbRKSt8functionIFT_DpT0_EEDn
FNDA:5,_ZSteqIvJRKNSt7__cxx1112basic_stringIcSt11char_traitsIcESaIcEEEEEbRKSt8functionIFT_DpT0_EEDn
FNDA:6,_ZNSt9_Any_data9_M_accessEv
FNDA:3,_ZNKSt9_Any_data9_M_accessEv
FNDA:0,_ZNSt9_Any_data9_M_accessIPKSt9type_infoEERT_v
FNDA:2,_ZNSt9_Any_data9_M_accessIPN7testing10OnceActionIFSt6vectorINSt7__cxx1112basic_stringIcSt11char_traitsIcESaIcEEESaIS9_EEmEE18StdFunctionAdaptorINSD_23IgnoreIncomingArgumentsINS1_8internal12ReturnActionISB_E4ImplISB_EEEEEEEERT_v
FNDA:4,_ZNSt9_Any_data9_M_accessIPN7testing8internal16TypedExpectationIFSt6vectorINSt7__cxx1112basic_stringIcSt11char_traitsIcESaIcEEESaISA_EEmEE13ActionAdaptorEEERT_v
FNDA:1,_ZNKSt9_Any_data9_M_accessIPN7testing10OnceActionIFSt6vectorINSt7__cxx1112basic_stringIcSt11char_traitsIcESaIcEEESaIS9_EEmEE18StdFunctionAdaptorINSD_23IgnoreIncomingArgumentsINS1_8internal12ReturnActionISB_E4ImplISB_EEEEEEEERKT_v
FNDA:2,_ZNKSt9_Any_data9_M_accessIPN7testing8internal16TypedExpectationIFSt6vectorINSt7__cxx1112basic_stringIcSt11char_traitsIcESaIcEEESaISA_EEmEE13ActionAdaptorEEERKT_v
FNF:45
FNH:40
DA:85,6
DA:86,3
DA:90,6
DA:91,6
DA:95,3
DA:96,3
DA:134,3
DA:142,3
DA:158,3
DA:160,3
DA:161,3
DA:162,3
DA:173,3
DA:175,3
DA:176,3
DA:180,4
DA:183,4
DA:185,0
DA:187,0
DA:191,0
DA:193,0
DA:194,0
DA:195,0
DA:197,1
DA:198,1
DA:199,1
DA:200,1
DA:202,3
DA:203,3
DA:204,3
DA:206,4
DA:211,3
DA:215,3
DA:216,3
DA:235,2
DA:236,2
DA:239,12
DA:241,12
DA:243,12
DA:244,3
DA:245,12
DA:247,12
DA:267,4
DA:270,4
DA:273,0
DA:274,0
DA:275,0
DA:277,0
DA:278,0
DA:279,0
DA:281,4
DA:282,4
DA:284,4
DA:288,2
DA:290,2
DA:291,4
DA:368,7
DA:369,7
DA:386,1
DA:387,1
DA:389,1
DA:391,1
DA:392,1
DA:393,1
DA:395,1
DA:404,2
DA:405,2
DA:407,2
DA:409,2
DA:410,2
DA:411,2
DA:412,2
DA:414,2
DA:435,2
DA:437,2
DA:447,2
DA:449,2
DA:451,2
DA:452,2
DA:454,2
DA:531,1
DA:534,1
DA:535,1
DA:556,1
DA:558,1
DA:559,1
DA:560,1
DA:561,1
DA:573,10
DA:574,10
DA:587,2
DA:589,2
DA:590,0
DA:591,2
DA:737,7
DA:738,7
LF:96
LH:83
end_of_record
TN:
SF:/usr/include/c++/13/bits/stl_algobase.h
FN:233,241,_ZSt3minImERKT_S2_S2_
FN:257,265,_ZSt3maxImERKT_S2_S2_
FN:316,318,_ZSt12__niter_baseIPNSt7__cxx1112basic_stringIcSt11char_traitsIcESaIcEEEET_S7_
FN:316,318,_ZSt12__niter_baseIPPKvET_S3_
FN:316,318,_ZSt12__niter_baseIPSt10shared_ptrIN7testing8internal15ExpectationBaseEEET_S6_
FNDA:1144,_ZSt3minImERKT_S2_S2_
FNDA:518,_ZSt3maxImERKT_S2_S2_
FNDA:1392,_ZSt12__niter_baseIPNSt7__cxx1112basic_stringIcSt11char_traitsIcESaIcEEEET_S7_
FNDA:6,_ZSt12__niter_baseIPPKvET_S3_
FNDA:30,_ZSt12__niter_baseIPSt10shared_ptrIN7testing8internal15ExpectationBaseEEET_S6_
FNF:5
FNH:5
DA:233,1144
DA:238,1144
DA:239,2
DA:240,1142
DA:257,518
DA:262,518
DA:263,277
DA:264,241
DA:316,1428
DA:318,1428
LF:10
LH:10
end_of_record
TN:
SF:/usr/include/c++/13/bits/stl_construct.h
FN:109,120,_ZSt10_ConstructIN7testing10OnceActionIFSt6vectorINSt7__cxx1112basic_stringIcSt11char_traitsIcESaIcEEESaIS8_EEmEE23IgnoreIncomingArgumentsINS0_8internal12ReturnActionISA_E4ImplISA_EEEEJSJ_EEvPT_DpOT0_
FN:109,120,_ZSt10_ConstructIN7testing10OnceActionIFSt6vectorINSt7__cxx1112basic_stringIcSt11char_traitsIcESaIcEEESaIS8_EEmEEEJSC_EEvPT_DpOT0_
FN:109,120,_ZSt10_ConstructINSt7__cxx1112basic_stringIcSt11char_traitsIcESaIcEEEJRKS5_EEvPT_DpOT0_
FN:146,153,_ZSt8_DestroyIN7testing10OnceActionIFSt6vectorINSt7__cxx1112basic_stringIcSt11char_traitsIcESaIcEEESaIS8_EEmEE23IgnoreIncomingArgumentsINS0_8internal12ReturnActionISA_E4ImplISA_EEEEEvPT_
FN:146,153,_ZSt8_DestroyIN7testing10OnceActionIFSt6vectorINSt7__cxx1112basic_stringIcSt11char_traitsIcESaIcEEESaIS8_EEmEEEEvPT_
FN:146,153,_ZSt8_DestroyINSt7__cxx1112basic_stringIcSt11char_traitsIcESaIcEEEEvPT_
FN:160,164,_ZNSt12_Destroy_auxILb0EE9__destroyIPNSt7__cxx1112basic_stringIcSt11char_traitsIcESaIcEEEEEvT_S9_
FN:172,172,_ZNSt12_Destroy_auxILb1EE9__destroyIPPKvEEvT_S5_
FN:182,197,_ZSt8_DestroyIPNSt7__cxx1112basic_stringIcSt11char_traitsIcESaIcEEEEvT_S7_
FN:182,197,_ZSt8_DestroyIPPKvEvT_S3_
FNDA:1,_ZSt10_ConstructIN7testing10OnceActionIFSt6vectorINSt7__cxx1112basic_stringIcSt11char_traitsIcESaIcEEESaIS8_EEmEE23IgnoreIncomingArgumentsINS0_8internal12ReturnActionISA_E4ImplISA_EEEEJSJ_EEvPT_DpOT0_
FNDA:1,_ZSt10_ConstructIN7testing10OnceActionIFSt6vectorINSt7__cxx1112basic_stringIcSt11char_traitsIcESaIcEEESaIS8_EEmEEEJSC_EEvPT_DpOT0_
FNDA:72,_ZSt10_ConstructINSt7__cxx1112basic_stringIcSt11char_traitsIcESaIcEEEJRKS5_EEvPT_DpOT0_
FNDA:1,_ZSt8_DestroyIN7testing10OnceActionIFSt6vectorINSt7__cxx1112basic_stringIcSt11char_traitsIcESaIcEEESaIS8_EEmEE23IgnoreIncomingArgumentsINS0_8internal12ReturnActionISA_E4ImplISA_EEEEEvPT_
FNDA:1,_ZSt8_DestroyIN7testing10OnceActionIFSt6vectorINSt7__cxx1112basic_stringIcSt11char_traitsIcESaIcEEESaIS8_EEmEEEEvPT_
FNDA:422,_ZSt8_DestroyINSt7__cxx1112basic_stringIcSt11char_traitsIcESaIcEEEEvPT_
FNDA:554,_ZNSt12_Destroy_auxILb0EE9__destroyIPNSt7__cxx1112basic_stringIcSt11char_traitsIcESaIcEEEEEvT_S9_
FNDA:18,_ZNSt12_Destroy_auxILb1EE9__destroyIPPKvEEvT_S5_
FNDA:554,_ZSt8_DestroyIPNSt7__cxx1112basic_stringIcSt11char_traitsIcESaIcEEEEvT_S7_
FNDA:18,_ZSt8_DestroyIPPKvEvT_S3_
FNF:10
FNH:10
DA:109,74
DA:119,74
DA:120,74
DA:146,424
DA:151,424
DA:153,424
DA:160,554
DA:162,976
DA:163,422
DA:164,554
DA:172,18
DA:182,572
DA:196,572
DA:197,572
LF:14
LH:14
end_of_record
TN:
SF:/usr/include/c++/13/bits/stl_function.h
FN:499,502,_ZNKSt8equal_toIvEclIRKmS3_EEDTeqcl7forwardIT_Efp_Ecl7forwardIT0_Efp0_EEOS4_OS5_
FNDA:1,_ZNKSt8equal_toIvEclIRKmS3_EEDTeqcl7forwardIT_Efp_Ecl7forwardIT0_Efp0_EEOS4_OS5_
FNF:1
FNH:1
DA:499,1
DA:502,1
LF:2
LH:2
end_of_record
TN:
SF:/usr/include/c++/13/bits/stl_iterator.h
FN:1076,1077,_ZN9__gnu_cxx17__normal_iteratorIPKNSt7__cxx1112basic_stringIcSt11char_traitsIcESaIcEEESt6vectorIS6_SaIS6_EEEC2ERKS8_
FN:1076,1077,_ZN9__gnu_cxx17__normal_iteratorIPKPKvSt6vectorIS2_SaIS2_EEEC2ERKS4_
FN:1076,1077,_ZN9__gnu_cxx17__normal_iteratorIPKSt10shared_ptrIN7testing8internal15ExpectationBaseEESt6vectorIS5_SaIS5_EEEC2ERKS7_
FN:1076,1077,_ZN9__gnu_cxx17__normal_iteratorIPNSt7__cxx1112basic_stringIcSt11char_traitsIcESaIcEEESt6vectorIS6_SaIS6_EEEC2ERKS7_
FN:1076,1077,_ZN9__gnu_cxx17__normal_iteratorIPPKvSt6vectorIS2_SaIS2_EEEC2ERKS3_
FN:1076,1077,_ZN9__gnu_cxx17__normal_iteratorIPSt10shared_ptrIN7testing8internal15ExpectationBaseEESt6vectorIS5_SaIS5_EEEC2ERKS6_
FN:1083,1094,_ZN9__gnu_cxx17__normal_iteratorIPKPKvSt6vectorIS2_SaIS2_EEEC2IPS2_vEERKNS0_IT_S7_EE
FN:1099,1100,_ZNK9__gnu_cxx17__normal_iteratorIPKNSt7__cxx1112basic_stringIcSt11char_traitsIcESaIcEEESt6vectorIS6_SaIS6_EEEdeEv
FN:1099,1100,_ZNK9__gnu_cxx17__normal_iteratorIPKPKvSt6vectorIS2_SaIS2_EEEdeEv
FN:1099,1100,_ZNK9__gnu_cxx17__normal_iteratorIPNSt7__cxx1112basic_stringIcSt11char_traitsIcESaIcEEESt6vectorIS6_SaIS6_EEEdeEv
FN:1099,1100,_ZNK9__gnu_cxx17__normal_iteratorIPPKvSt6vectorIS2_SaIS2_EEEdeEv
FN:1104,1105,_ZNK9__gnu_cxx17__normal_iteratorIPKSt10shared_ptrIN7testing8internal15ExpectationBaseEESt6vectorIS5_SaIS5_EEEptEv
FN:1109,1113,_ZN9__gnu_cxx17__normal_iteratorIPKNSt7__cxx1112basic_stringIcSt11char_traitsIcESaIcEEESt6vectorIS6_SaIS6_EEEppEv
FN:1109,1113,_ZN9__gnu_cxx17__normal_iteratorIPKPKvSt6vectorIS2_SaIS2_EEEppEv
FN:1123,1127,_ZN9__gnu_cxx17__normal_iteratorIPKPKvSt6vectorIS2_SaIS2_EEEmmEv
FN:1123,1127,_ZN9__gnu_cxx17__normal_iteratorIPKSt10shared_ptrIN7testing8internal15ExpectationBaseEESt6vectorIS5_SaIS5_EEEmmEv
FN:1157,1158,_ZNK9__gnu_cxx17__normal_iteratorIPKNSt7__cxx1112basic_stringIcSt11char_traitsIcESaIcEEESt6vectorIS6_SaIS6_EEEmiEl
FN:1157,1158,_ZNK9__gnu_cxx17__normal_iteratorIPNSt7__cxx1112basic_stringIcSt11char_traitsIcESaIcEEESt6vectorIS6_SaIS6_EEEmiEl
FN:1157,1158,_ZNK9__gnu_cxx17__normal_iteratorIPPKvSt6vectorIS2_SaIS2_EEEmiEl
FN:1162,1163,_ZNK9__gnu_cxx17__normal_iteratorIPKNSt7__cxx1112basic_stringIcSt11char_traitsIcESaIcEEESt6vectorIS6_SaIS6_EEE4baseEv
FN:1162,1163,_ZNK9__gnu_cxx17__normal_iteratorIPKPKvSt6vectorIS2_SaIS2_EEE4baseEv
FN:1162,1163,_ZNK9__gnu_cxx17__normal_iteratorIPKSt10shared_ptrIN7testing8internal15ExpectationBaseEESt6vectorIS5_SaIS5_EEE4baseEv
FN:1162,1163,_ZNK9__gnu_cxx17__normal_iteratorIPNSt7__cxx1112basic_stringIcSt11char_traitsIcESaIcEEESt6vectorIS6_SaIS6_EEE4baseEv
FN:1162,1163,_ZNK9__gnu_cxx17__normal_iteratorIPPKvSt6vectorIS2_SaIS2_EEE4baseEv
FN:1162,1163,_ZNK9__gnu_cxx17__normal_iteratorIPSt10shared_ptrIN7testing8internal15ExpectationBaseEESt6vectorIS5_SaIS5_EEE4baseEv
FN:1225,1228,_ZN9__gnu_cxxeqIPKNSt7__cxx1112basic_stringIcSt11char_traitsIcESaIcEEESt6vectorIS6_SaIS6_EEEEbRKNS_17__normal_iteratorIT_T0_EESH_
FN:1225,1228,_ZN9__gnu_cxxeqIPKPKvSt6vectorIS2_SaIS2_EEEEbRKNS_17__normal_iteratorIT_T0_EESD_
FN:1225,1228,_ZN9__gnu_cxxeqIPKSt10shared_ptrIN7testing8internal15ExpectationBaseEESt6vectorIS5_SaIS5_EEEEbRKNS_17__normal_iteratorIT_T0_EESG_
FN:1233,1236,_ZN9__gnu_cxxneIPKPKvPS2_St6vectorIS2_SaIS2_EEEEbRKNS_17__normal_iteratorIT_T1_EERKNS9_IT0_SB_EE
FN:1241,1244,_ZN9__gnu_cxxneIPKNSt7__cxx1112basic_stringIcSt11char_traitsIcESaIcEEESt6vectorIS6_SaIS6_EEEEbRKNS_17__normal_iteratorIT_T0_EESH_
FN:1334,1337,_ZN9__gnu_cxxmiIPKNSt7__cxx1112basic_stringIcSt11char_traitsIcESaIcEEESt6vectorIS6_SaIS6_EEEENS_17__normal_iteratorIT_T0_E15difference_typeERKSF_SI_
FN:1334,1337,_ZN9__gnu_cxxmiIPNSt7__cxx1112basic_stringIcSt11char_traitsIcESaIcEEESt6vectorIS6_SaIS6_EEEENS_17__normal_iteratorIT_T0_E15difference_typeERKSE_SH_
FN:1334,1337,_ZN9__gnu_cxxmiIPPKvSt6vectorIS2_SaIS2_EEEENS_17__normal_iteratorIT_T0_E15difference_typeERKSA_SD_
FN:1334,1337,_ZN9__gnu_cxxmiIPSt10shared_ptrIN7testing8internal15ExpectationBaseEESt6vectorIS5_SaIS5_EEEENS_17__normal_iteratorIT_T0_E15difference_typeERKSD_SG_
FN:195,198,_ZNSt16reverse_iteratorIN9__gnu_cxx17__normal_iteratorIPKPKvSt6vectorIS3_SaIS3_EEEEEC2ES9_
FN:195,198,_ZNSt16reverse_iteratorIN9__gnu_cxx17__normal_iteratorIPKSt10shared_ptrIN7testing8internal15ExpectationBaseEESt6vectorIS6_SaIS6_EEEEEC2ESC_
FN:248,250,_ZNKSt16reverse_iteratorIN9__gnu_cxx17__normal_iteratorIPKPKvSt6vectorIS3_SaIS3_EEEEE4baseEv
FN:248,250,_ZNKSt16reverse_iteratorIN9__gnu_cxx17__normal_iteratorIPKSt10shared_ptrIN7testing8internal15ExpectationBaseEESt6vectorIS6_SaIS6_EEEEE4baseEv
FN:264,268,_ZNKSt16reverse_iteratorIN9__gnu_cxx17__normal_iteratorIPKPKvSt6vectorIS3_SaIS3_EEEEEdeEv
FN:277,288,_ZNKSt16reverse_iteratorIN9__gnu_cxx17__normal_iteratorIPKSt10shared_ptrIN7testing8internal15ExpectationBaseEESt6vectorIS6_SaIS6_EEEEEptEv
FN:296,300,_ZNSt16reverse_iteratorIN9__gnu_cxx17__normal_iteratorIPKPKvSt6vectorIS3_SaIS3_EEEEEppEv
FN:296,300,_ZNSt16reverse_iteratorIN9__gnu_cxx17__normal_iteratorIPKSt10shared_ptrIN7testing8internal15ExpectationBaseEESt6vectorIS6_SaIS6_EEEEEppEv
FN:430,431,_ZNSt16reverse_iteratorIN9__gnu_cxx17__normal_iteratorIPKSt10shared_ptrIN7testing8internal15ExpectationBaseEESt6vectorIS6_SaIS6_EEEEE13_S_to_pointerISC_EES8_T_
FN:448,450,_ZSteqIN9__gnu_cxx17__normal_iteratorIPKPKvSt6vectorIS3_SaIS3_EEEEEbRKSt16reverse_iteratorIT_ESE_
FN:448,450,_ZSteqIN9__gnu_cxx17__normal_iteratorIPKSt10shared_ptrIN7testing8internal15ExpectationBaseEESt6vectorIS6_SaIS6_EEEEEbRKSt16reverse_iteratorIT_ESH_
FN:462,464,_ZStneIN9__gnu_cxx17__normal_iteratorIPKPKvSt6vectorIS3_SaIS3_EEEEEbRKSt16reverse_iteratorIT_ESE_
FN:462,464,_ZStneIN9__gnu_cxx17__normal_iteratorIPKSt10shared_ptrIN7testing8internal15ExpectationBaseEESt6vectorIS6_SaIS6_EEEEEbRKSt16reverse_iteratorIT_ESH_
FNDA:1715,_ZN9__gnu_cxx17__normal_iteratorIPKNSt7__cxx1112basic_stringIcSt11char_traitsIcESaIcEEESt6vectorIS6_SaIS6_EEEC2ERKS8_
FNDA:10,_ZN9__gnu_cxx17__normal_iteratorIPKPKvSt6vectorIS2_SaIS2_EEEC2ERKS4_
FNDA:12,_ZN9__gnu_cxx17__normal_iteratorIPKSt10shared_ptrIN7testing8internal15ExpectationBaseEESt6vectorIS5_SaIS5_EEEC2ERKS7_
FNDA:1341,_ZN9__gnu_cxx17__normal_iteratorIPNSt7__cxx1112basic_stringIcSt11char_traitsIcESaIcEEESt6vectorIS6_SaIS6_EEEC2ERKS7_
FNDA:29,_ZN9__gnu_cxx17__normal_iteratorIPPKvSt6vectorIS2_SaIS2_EEEC2ERKS3_
FNDA:28,_ZN9__gnu_cxx17__normal_iteratorIPSt10shared_ptrIN7testing8internal15ExpectationBaseEESt6vectorIS5_SaIS5_EEEC2ERKS6_
FNDA:12,_ZN9__gnu_cxx17__normal_iteratorIPKPKvSt6vectorIS2_SaIS2_EEEC2IPS2_vEERKNS0_IT_S7_EE
FNDA:848,_ZNK9__gnu_cxx17__normal_iteratorIPKNSt7__cxx1112basic_stringIcSt11char_traitsIcESaIcEEESt6vectorIS6_SaIS6_EEEdeEv
FNDA:1,_ZNK9__gnu_cxx17__normal_iteratorIPKPKvSt6vectorIS2_SaIS2_EEEdeEv
FNDA:111,_ZNK9__gnu_cxx17__normal_iteratorIPNSt7__cxx1112basic_stringIcSt11char_traitsIcESaIcEEESt6vectorIS6_SaIS6_EEEdeEv
FNDA:1,_ZNK9__gnu_cxx17__normal_iteratorIPPKvSt6vectorIS2_SaIS2_EEEdeEv
FNDA:12,_ZNK9__gnu_cxx17__normal_iteratorIPKSt10shared_ptrIN7testing8internal15ExpectationBaseEESt6vectorIS5_SaIS5_EEEptEv
FNDA:822,_ZN9__gnu_cxx17__normal_iteratorIPKNSt7__cxx1112basic_stringIcSt11char_traitsIcESaIcEEESt6vectorIS6_SaIS6_EEEppEv
FNDA:1,_ZN9__gnu_cxx17__normal_iteratorIPKPKvSt6vectorIS2_SaIS2_EEEppEv
FNDA:0,_ZN9__gnu_cxx17__normal_iteratorIPKPKvSt6vectorIS2_SaIS2_EEEmmEv
FNDA:6,_ZN9__gnu_cxx17__normal_iteratorIPKSt10shared_ptrIN7testing8internal15ExpectationBaseEESt6vectorIS5_SaIS5_EEEmmEv
FNDA:5,_ZNK9__gnu_cxx17__normal_iteratorIPKNSt7__cxx1112basic_stringIcSt11char_traitsIcESaIcEEESt6vectorIS6_SaIS6_EEEmiEl
FNDA:64,_ZNK9__gnu_cxx17__normal_iteratorIPNSt7__cxx1112basic_stringIcSt11char_traitsIcESaIcEEESt6vectorIS6_SaIS6_EEEmiEl
FNDA:1,_ZNK9__gnu_cxx17__normal_iteratorIPPKvSt6vectorIS2_SaIS2_EEEmiEl
FNDA:4718,_ZNK9__gnu_cxx17__normal_iteratorIPKNSt7__cxx1112basic_stringIcSt11char_traitsIcESaIcEEESt6vectorIS6_SaIS6_EEE4baseEv
FNDA:23,_ZNK9__gnu_cxx17__normal_iteratorIPKPKvSt6vectorIS2_SaIS2_EEE4baseEv
FNDA:24,_ZNK9__gnu_cxx17__normal_iteratorIPKSt10shared_ptrIN7testing8internal15ExpectationBaseEESt6vectorIS5_SaIS5_EEE4baseEv
FNDA:1698,_ZNK9__gnu_cxx17__normal_iteratorIPNSt7__cxx1112basic_stringIcSt11char_traitsIcESaIcEEESt6vectorIS6_SaIS6_EEE4baseEv
FNDA:29,_ZNK9__gnu_cxx17__normal_iteratorIPPKvSt6vectorIS2_SaIS2_EEE4baseEv
FNDA:38,_ZNK9__gnu_cxx17__normal_iteratorIPSt10shared_ptrIN7testing8internal15ExpectationBaseEESt6vectorIS5_SaIS5_EEE4baseEv
FNDA:174,_ZN9__gnu_cxxeqIPKNSt7__cxx1112basic_stringIcSt11char_traitsIcESaIcEEESt6vectorIS6_SaIS6_EEEEbRKNS_17__normal_iteratorIT_T0_EESH_
FNDA:5,_ZN9__gnu_cxxeqIPKPKvSt6vectorIS2_SaIS2_EEEEbRKNS_17__normal_iteratorIT_T0_EESD_
FNDA:6,_ZN9__gnu_cxxeqIPKSt10shared_ptrIN7testing8internal15ExpectationBaseEESt6vectorIS5_SaIS5_EEEEbRKNS_17__normal_iteratorIT_T0_EESG_
FNDA:13,_ZN9__gnu_cxxneIPKPKvPS2_St6vectorIS2_SaIS2_EEEEbRKNS_17__normal_iteratorIT_T1_EERKNS9_IT0_SB_EE
FNDA:119,_ZN9__gnu_cxxneIPKNSt7__cxx1112basic_stringIcSt11char_traitsIcESaIcEEESt6vectorIS6_SaIS6_EEEEbRKNS_17__normal_iteratorIT_T0_EESH_
FNDA:1319,_ZN9__gnu_cxxmiIPKNSt7__cxx1112basic_stringIcSt11char_traitsIcESaIcEEESt6vectorIS6_SaIS6_EEEENS_17__normal_iteratorIT_T0_E15difference_typeERKSF_SI_
FNDA:283,_ZN9__gnu_cxxmiIPNSt7__cxx1112basic_stringIcSt11char_traitsIcESaIcEEESt6vectorIS6_SaIS6_EEEENS_17__normal_iteratorIT_T0_E15difference_typeERKSE_SH_
FNDA:1,_ZN9__gnu_cxxmiIPPKvSt6vectorIS2_SaIS2_EEEENS_17__normal_iteratorIT_T0_E15difference_typeERKSA_SD_
FNDA:5,_ZN9__gnu_cxxmiIPSt10shared_ptrIN7testing8internal15ExpectationBaseEESt6vectorIS5_SaIS5_EEEENS_17__normal_iteratorIT_T0_E15difference_typeERKSD_SG_
FNDA:10,_ZNSt16reverse_iteratorIN9__gnu_cxx17__normal_iteratorIPKPKvSt6vectorIS3_SaIS3_EEEEEC2ES9_
FNDA:12,_ZNSt16reverse_iteratorIN9__gnu_cxx17__normal_iteratorIPKSt10shared_ptrIN7testing8internal15ExpectationBaseEESt6vectorIS6_SaIS6_EEEEEC2ESC_
FNDA:10,_ZNKSt16reverse_iteratorIN9__gnu_cxx17__normal_iteratorIPKPKvSt6vectorIS3_SaIS3_EEEEE4baseEv
FNDA:12,_ZNKSt16reverse_iteratorIN9__gnu_cxx17__normal_iteratorIPKSt10shared_ptrIN7testing8internal15ExpectationBaseEESt6vectorIS6_SaIS6_EEEEE4baseEv
FNDA:0,_ZNKSt16reverse_iteratorIN9__gnu_cxx17__normal_iteratorIPKPKvSt6vectorIS3_SaIS3_EEEEEdeEv
FNDA:6,_ZNKSt16reverse_iteratorIN9__gnu_cxx17__normal_iteratorIPKSt10shared_ptrIN7testing8internal15ExpectationBaseEESt6vectorIS6_SaIS6_EEEEEptEv
FNDA:0,_ZNSt16reverse_iteratorIN9__gnu_cxx17__normal_iteratorIPKPKvSt6vectorIS3_SaIS3_EEEEEppEv
FNDA:0,_ZNSt16reverse_iteratorIN9__gnu_cxx17__normal_iteratorIPKSt10shared_ptrIN7testing8internal15ExpectationBaseEESt6vectorIS6_SaIS6_EEEEEppEv
FNDA:6,_ZNSt16reverse_iteratorIN9__gnu_cxx17__normal_iteratorIPKSt10shared_ptrIN7testing8internal15ExpectationBaseEESt6vectorIS6_SaIS6_EEEEE13_S_to_pointerISC_EES8_T_
FNDA:5,_ZSteqIN9__gnu_cxx17__normal_iteratorIPKPKvSt6vectorIS3_SaIS3_EEEEEbRKSt16reverse_iteratorIT_ESE_
FNDA:6,_ZSteqIN9__gnu_cxx17__normal_iteratorIPKSt10shared_ptrIN7testing8internal15ExpectationBaseEESt6vectorIS6_SaIS6_EEEEEbRKSt16reverse_iteratorIT_ESH_
FNDA:5,_ZStneIN9__gnu_cxx17__normal_iteratorIPKPKvSt6vectorIS3_SaIS3_EEEEEbRKSt16reverse_iteratorIT_ESE_
FNDA:6,_ZStneIN9__gnu_cxx17__normal_iteratorIPKSt10shared_ptrIN7testing8internal15ExpectationBaseEESt6vectorIS6_SaIS6_EEEEEbRKSt16reverse_iteratorIT_ESH_
FNF:47
FNH:43
DA:195,22
DA:197,22
DA:198,22
DA:248,22
DA:250,22
DA:264,0
DA:266,0
DA:267,0
DA:277,6
DA:285,6
DA:286,6
DA:287,6
DA:296,0
DA:298,0
DA:299,0
DA:430,6
DA:431,6
DA:448,11
DA:450,11
DA:462,11
DA:464,11
DA:1076,3135
DA:1077,3135
DA:1083,12
DA:1094,12
DA:1099,961
DA:1100,961
DA:1104,12
DA:1105,12
DA:1109,823
DA:1111,823
DA:1112,823
DA:1123,6
DA:1125,6
DA:1126,6
DA:1157,70
DA:1158,70
DA:1162,6530
DA:1163,6530
DA:1225,185
DA:1228,185
DA:1233,13
DA:1236,13
DA:1241,119
DA:1244,119
DA:1334,1608
DA:1337,1608
LF:47
LH:41
end_of_record
TN:
SF:/usr/include/c++/13/bits/stl_iterator_base_funcs.h
FNF:0
FNH:0
DA:106,1359
DA:151,2713
DA:152,2718
LF:3
LH:3
end_of_record
TN:
SF:/usr/include/c++/13/bits/stl_iterator_base_types.h
FNF:0
FNH:0
DA:240,1364
LF:1
LH:1
end_of_record
TN:
SF:/usr/include/c++/13/bits/stl_set.h
FN:169,169,_ZNSt3setIN7testing11ExpectationENS1_4LessESaIS1_EEC2Ev
FN:283,283,_ZNSt3setIN7testing11ExpectationENS1_4LessESaIS1_EED2Ev
FN:346,347,_ZNKSt3setIN7testing11ExpectationENS1_4LessESaIS1_EE5beginEv
FN:355,356,_ZNKSt3setIN7testing11ExpectationENS1_4LessESaIS1_EE3endEv
FNDA:6,_ZNSt3setIN7testing11ExpectationENS1_4LessESaIS1_EEC2Ev
FNDA:6,_ZNSt3setIN7testing11ExpectationENS1_4LessESaIS1_EED2Ev
FNDA:12,_ZNKSt3setIN7testing11ExpectationENS1_4LessESaIS1_EE5beginEv
FNDA:12,_ZNKSt3setIN7testing11ExpectationENS1_4LessESaIS1_EE3endEv
FNF:4
FNH:4
DA:169,6
DA:283,6
DA:346,12
DA:347,12
DA:355,12
DA:356,12
LF:6
LH:6
end_of_record
TN:
SF:/usr/include/c++/13/bits/stl_tree.h
FN:1001,1002,_ZNKSt8_Rb_treeIN7testing11ExpectationES1_St9_IdentityIS1_ENS1_4LessESaIS1_EE5beginEv
FN:1009,1010,_ZNKSt8_Rb_treeIN7testing11ExpectationES1_St9_IdentityIS1_ENS1_4LessESaIS1_EE3endEv
FN:146,150,_ZNSt20_Rb_tree_key_compareIN7testing11Expectation4LessEEC2Ev
FN:173,177,_ZNSt15_Rb_tree_headerC2Ev
FN:1930,1941,_ZNSt8_Rb_treeIN7testing11ExpectationES1_St9_IdentityIS1_ENS1_4LessESaIS1_EE8_M_eraseEPSt13_Rb_tree_nodeIS1_E
FN:206,212,_ZNSt15_Rb_tree_header8_M_resetEv
FN:234,235,_ZNSt13_Rb_tree_nodeIN7testing11ExpectationEE9_M_valptrEv
FN:238,239,_ZNKSt13_Rb_tree_nodeIN7testing11ExpectationEE9_M_valptrEv
FN:347,348,_ZNSt23_Rb_tree_const_iteratorIN7testing11ExpectationEEC2EPKSt18_Rb_tree_node_base
FN:362,363,_ZNKSt23_Rb_tree_const_iteratorIN7testing11ExpectationEEptEv
FN:366,370,_ZNSt23_Rb_tree_const_iteratorIN7testing11ExpectationEEppEv
FN:401,402,_ZStneRKSt23_Rb_tree_const_iteratorIN7testing11ExpectationEES4_
FN:549,550,_ZNSt8_Rb_treeIN7testing11ExpectationES1_St9_IdentityIS1_ENS1_4LessESaIS1_EE21_M_get_Node_allocatorEv
FN:566,567,_ZNSt8_Rb_treeIN7testing11ExpectationES1_St9_IdentityIS1_ENS1_4LessESaIS1_EE11_M_put_nodeEPSt13_Rb_tree_nodeIS1_E
FN:620,628,_ZNSt8_Rb_treeIN7testing11ExpectationES1_St9_IdentityIS1_ENS1_4LessESaIS1_EE15_M_destroy_nodeEPSt13_Rb_tree_nodeIS1_E
FN:631,635,_ZNSt8_Rb_treeIN7testing11ExpectationES1_St9_IdentityIS1_ENS1_4LessESaIS1_EE12_M_drop_nodeEPSt13_Rb_tree_nodeIS1_E
FN:669,674,_ZNSt8_Rb_treeIN7testing11ExpectationES1_St9_IdentityIS1_ENS1_4LessESaIS1_EE13_Rb_tree_implIS4_Lb1EEC2Ev
FN:736,737,_ZNKSt8_Rb_treeIN7testing11ExpectationES1_St9_IdentityIS1_ENS1_4LessESaIS1_EE9_M_mbeginEv
FN:740,741,_ZNSt8_Rb_treeIN7testing11ExpectationES1_St9_IdentityIS1_ENS1_4LessESaIS1_EE8_M_beginEv
FN:781,782,_ZNSt8_Rb_treeIN7testing11ExpectationES1_St9_IdentityIS1_ENS1_4LessESaIS1_EE7_S_leftEPSt18_Rb_tree_node_base
FN:789,790,_ZNSt8_Rb_treeIN7testing11ExpectationES1_St9_IdentityIS1_ENS1_4LessESaIS1_EE8_S_rightEPSt18_Rb_tree_node_base
FN:930,930,_ZNSt8_Rb_treeIN7testing11ExpectationES1_St9_IdentityIS1_ENS1_4LessESaIS1_EEC2Ev
FN:985,986,_ZNSt8_Rb_treeIN7testing11ExpectationES1_St9_IdentityIS1_ENS1_4LessESaIS1_EED2Ev
FNDA:12,_ZNKSt8_Rb_treeIN7testing11ExpectationES1_St9_IdentityIS1_ENS1_4LessESaIS1_EE5beginEv
FNDA:12,_ZNKSt8_Rb_treeIN7testing11ExpectationES1_St9_IdentityIS1_ENS1_4LessESaIS1_EE3endEv
FNDA:6,_ZNSt20_Rb_tree_key_compareIN7testing11Expectation4LessEEC2Ev
FNDA:20,_ZNSt15_Rb_tree_headerC2Ev
FNDA:6,_ZNSt8_Rb_treeIN7testing11ExpectationES1_St9_IdentityIS1_ENS1_4LessESaIS1_EE8_M_eraseEPSt13_Rb_tree_nodeIS1_E
FNDA:22,_ZNSt15_Rb_tree_header8_M_resetEv
FNDA:0,_ZNSt13_Rb_tree_nodeIN7testing11ExpectationEE9_M_valptrEv
FNDA:0,_ZNKSt13_Rb_tree_nodeIN7testing11ExpectationEE9_M_valptrEv
FNDA:24,_ZNSt23_Rb_tree_const_iteratorIN7testing11ExpectationEEC2EPKSt18_Rb_tree_node_base
FNDA:0,_ZNKSt23_Rb_tree_const_iteratorIN7testing11ExpectationEEptEv
FNDA:0,_ZNSt23_Rb_tree_const_iteratorIN7testing11ExpectationEEppEv
FNDA:12,_ZStneRKSt23_Rb_tree_const_iteratorIN7testing11ExpectationEES4_
FNDA:0,_ZNSt8_Rb_treeIN7testing11ExpectationES1_St9_IdentityIS1_ENS1_4LessESaIS1_EE21_M_get_Node_allocatorEv
FNDA:0,_ZNSt8_Rb_treeIN7testing11ExpectationES1_St9_IdentityIS1_ENS1_4LessESaIS1_EE11_M_put_nodeEPSt13_Rb_tree_nodeIS1_E
FNDA:0,_ZNSt8_Rb_treeIN7testing11ExpectationES1_St9_IdentityIS1_ENS1_4LessESaIS1_EE15_M_destroy_nodeEPSt13_Rb_tree_nodeIS1_E
FNDA:0,_ZNSt8_Rb_treeIN7testing11ExpectationES1_St9_IdentityIS1_ENS1_4LessESaIS1_EE12_M_drop_nodeEPSt13_Rb_tree_nodeIS1_E
FNDA:6,_ZNSt8_Rb_treeIN7testing11ExpectationES1_St9_IdentityIS1_ENS1_4LessESaIS1_EE13_Rb_tree_implIS4_Lb1EEC2Ev
FNDA:6,_ZNKSt8_Rb_treeIN7testing11ExpectationES1_St9_IdentityIS1_ENS1_4LessESaIS1_EE9_M_mbeginEv
FNDA:6,_ZNSt8_Rb_treeIN7testing11ExpectationES1_St9_IdentityIS1_ENS1_4LessESaIS1_EE8_M_beginEv
FNDA:0,_ZNSt8_Rb_treeIN7testing11ExpectationES1_St9_IdentityIS1_ENS1_4LessESaIS1_EE7_S_leftEPSt18_Rb_tree_node_base
FNDA:0,_ZNSt8_Rb_treeIN7testing11ExpectationES1_St9_IdentityIS1_ENS1_4LessESaIS1_EE8_S_rightEPSt18_Rb_tree_node_base
FNDA:6,_ZNSt8_Rb_treeIN7testing11ExpectationES1_St9_IdentityIS1_ENS1_4LessESaIS1_EEC2Ev
FNDA:6,_ZNSt8_Rb_treeIN7testing11ExpectationES1_St9_IdentityIS1_ENS1_4LessESaIS1_EED2Ev
FNF:23
FNH:13
DA:146,6
DA:150,6
DA:173,20
DA:174,20
DA:175,20
DA:176,20
DA:177,20
DA:206,22
DA:208,22
DA:209,22
DA:210,22
DA:211,22
DA:212,22
DA:234,0
DA:235,0
DA:238,0
DA:239,0
DA:347,24
DA:348,24
DA:362,0
DA:363,0
DA:366,0
DA:368,0
DA:369,0
DA:401,12
DA:402,12
DA:549,0
DA:550,0
DA:566,0
DA:567,0
DA:620,0
DA:625,0
DA:626,0
DA:628,0
DA:631,0
DA:633,0
DA:634,0
DA:635,0
DA:669,6
DA:673,6
DA:674,6
DA:736,6
DA:737,6
DA:740,6
DA:741,6
DA:781,0
DA:782,0
DA:789,0
DA:790,0
DA:930,6
DA:985,6
DA:986,6
DA:1001,12
DA:1002,12
DA:1009,12
DA:1010,12
DA:1930,6
DA:1934,6
DA:1936,0
DA:1937,0
DA:1938,0
DA:1939,0
DA:1941,6
LF:63
LH:34
end_of_record
TN:
SF:/usr/include/c++/13/bits/stl_uninitialized.h
FN:1069,1079,_ZSt19__relocate_object_aINSt7__cxx1112basic_stringIcSt11char_traitsIcESaIcEEES5_SaIS5_EEvPT_PT0_RT1_
FN:1069,1079,_ZSt19__relocate_object_aISt10shared_ptrIN7testing8internal15ExpectationBaseEES4_SaIS4_EEvPT_PT0_RT1_
FN:1091,1108,_ZSt14__relocate_a_1IPNSt7__cxx1112basic_stringIcSt11char_traitsIcESaIcEEES6_SaIS5_EET0_T_S9_S8_RT1_
FN:1091,1108,_ZSt14__relocate_a_1IPSt10shared_ptrIN7testing8internal15ExpectationBaseEES5_SaIS4_EET0_T_S8_S7_RT1_
FN:1114,1134,_ZSt14__relocate_a_1IPKvS1_ENSt9enable_ifIXsrSt24__is_bitwise_relocatableIT_vE5valueEPS4_E4typeES6_S6_S6_RSaIT0_E
FN:113,128,_ZSt16__do_uninit_copyIN9__gnu_cxx17__normal_iteratorIPKNSt7__cxx1112basic_stringIcSt11char_traitsIcESaIcEEESt6vectorIS7_SaIS7_EEEEPS7_ET0_T_SG_SF_
FN:113,128,_ZSt16__do_uninit_copyIPKNSt7__cxx1112basic_stringIcSt11char_traitsIcESaIcEEEPS5_ET0_T_SA_S9_
FN:1141,1150,_ZSt12__relocate_aIPNSt7__cxx1112basic_stringIcSt11char_traitsIcESaIcEEES6_SaIS5_EET0_T_S9_S8_RT1_
FN:1141,1150,_ZSt12__relocate_aIPPKvS2_SaIS1_EET0_T_S5_S4_RT1_
FN:1141,1150,_ZSt12__relocate_aIPSt10shared_ptrIN7testing8internal15ExpectationBaseEES5_SaIS4_EET0_T_S8_S7_RT1_
FN:135,137,_ZNSt20__uninitialized_copyILb0EE13__uninit_copyIN9__gnu_cxx17__normal_iteratorIPKNSt7__cxx1112basic_stringIcSt11char_traitsIcESaIcEEESt6vectorIS9_SaIS9_EEEEPS9_EET0_T_SI_SH_
FN:135,137,_ZNSt20__uninitialized_copyILb0EE13__uninit_copyIPKNSt7__cxx1112basic_stringIcSt11char_traitsIcESaIcEEEPS7_EET0_T_SC_SB_
FN:163,186,_ZSt18uninitialized_copyIN9__gnu_cxx17__normal_iteratorIPKNSt7__cxx1112basic_stringIcSt11char_traitsIcESaIcEEESt6vectorIS7_SaIS7_EEEEPS7_ET0_T_SG_SF_
FN:163,186,_ZSt18uninitialized_copyIPKNSt7__cxx1112basic_stringIcSt11char_traitsIcESaIcEEEPS5_ET0_T_SA_S9_
FN:366,374,_ZSt22__uninitialized_copy_aIN9__gnu_cxx17__normal_iteratorIPKNSt7__cxx1112basic_stringIcSt11char_traitsIcESaIcEEESt6vectorIS7_SaIS7_EEEEPS7_S7_ET0_T_SG_SF_RSaIT1_E
FN:366,374,_ZSt22__uninitialized_copy_aIPKNSt7__cxx1112basic_stringIcSt11char_traitsIcESaIcEEEPS5_S5_ET0_T_SA_S9_RSaIT1_E
FNDA:104,_ZSt19__relocate_object_aINSt7__cxx1112basic_stringIcSt11char_traitsIcESaIcEEES5_SaIS5_EEvPT_PT0_RT1_
FNDA:3,_ZSt19__relocate_object_aISt10shared_ptrIN7testing8internal15ExpectationBaseEES4_SaIS4_EEvPT_PT0_RT1_
FNDA:464,_ZSt14__relocate_a_1IPNSt7__cxx1112basic_stringIcSt11char_traitsIcESaIcEEES6_SaIS5_EET0_T_S9_S8_RT1_
FNDA:10,_ZSt14__relocate_a_1IPSt10shared_ptrIN7testing8internal15ExpectationBaseEES5_SaIS4_EET0_T_S8_S7_RT1_
FNDA:2,_ZSt14__relocate_a_1IPKvS1_ENSt9enable_ifIXsrSt24__is_bitwise_relocatableIT_vE5valueEPS4_E4typeES6_S6_S6_RSaIT0_E
FNDA:41,_ZSt16__do_uninit_copyIN9__gnu_cxx17__normal_iteratorIPKNSt7__cxx1112basic_stringIcSt11char_traitsIcESaIcEEESt6vectorIS7_SaIS7_EEEEPS7_ET0_T_SG_SF_
FNDA:1,_ZSt16__do_uninit_copyIPKNSt7__cxx1112basic_stringIcSt11char_traitsIcESaIcEEEPS5_ET0_T_SA_S9_
FNDA:464,_ZSt12__relocate_aIPNSt7__cxx1112basic_stringIcSt11char_traitsIcESaIcEEES6_SaIS5_EET0_T_S9_S8_RT1_
FNDA:2,_ZSt12__relocate_aIPPKvS2_SaIS1_EET0_T_S5_S4_RT1_
FNDA:10,_ZSt12__relocate_aIPSt10shared_ptrIN7testing8internal15ExpectationBaseEES5_SaIS4_EET0_T_S8_S7_RT1_
FNDA:41,_ZNSt20__uninitialized_copyILb0EE13__uninit_copyIN9__gnu_cxx17__normal_iteratorIPKNSt7__cxx1112basic_stringIcSt11char_traitsIcESaIcEEESt6vectorIS9_SaIS9_EEEEPS9_EET0_T_SI_SH_
FNDA:1,_ZNSt20__uninitialized_copyILb0EE13__uninit_copyIPKNSt7__cxx1112basic_stringIcSt11char_traitsIcESaIcEEEPS7_EET0_T_SC_SB_
FNDA:41,_ZSt18uninitialized_copyIN9__gnu_cxx17__normal_iteratorIPKNSt7__cxx1112basic_stringIcSt11char_traitsIcESaIcEEESt6vectorIS7_SaIS7_EEEEPS7_ET0_T_SG_SF_
FNDA:1,_ZSt18uninitialized_copyIPKNSt7__cxx1112basic_stringIcSt11char_traitsIcESaIcEEEPS5_ET0_T_SA_S9_
FNDA:41,_ZSt22__uninitialized_copy_aIN9__gnu_cxx17__normal_iteratorIPKNSt7__cxx1112basic_stringIcSt11char_traitsIcESaIcEEESt6vectorIS7_SaIS7_EEEEPS7_S7_ET0_T_SG_SF_RSaIT1_E
FNDA:1,_ZSt22__uninitialized_copy_aIPKNSt7__cxx1112basic_stringIcSt11char_traitsIcESaIcEEEPS5_S5_ET0_T_SA_S9_RSaIT1_E
FNF:16
FNH:16
DA:113,42
DA:116,42
DA:119,103
DA:120,61
DA:121,42
DA:123,0
DA:125,0
DA:126,0
DA:135,42
DA:137,42
DA:163,42
DA:174,42
DA:181,42
DA:185,42
DA:366,42
DA:373,42
DA:1069,107
DA:1077,107
DA:1078,107
DA:1079,107
DA:1091,474
DA:1103,474
DA:1104,581
DA:1105,107
DA:1107,474
DA:1114,2
DA:1118,2
DA:1119,2
DA:1131,0
DA:1133,2
DA:1141,476
DA:1147,476
DA:1149,476
LF:33
LH:29
end_of_record
TN:
SF:/usr/include/c++/13/bits/stl_vector.h
FN:105,108,_ZNSt12_Vector_baseINSt7__cxx1112basic_stringIcSt11char_traitsIcESaIcEEESaIS5_EE17_Vector_impl_dataC2EOS8_
FN:1088,1089,_ZNKSt6vectorINSt7__cxx1112basic_stringIcSt11char_traitsIcESaIcEEESaIS5_EE5emptyEv
FN:1126,1130,_ZNSt6vectorINSt7__cxx1112basic_stringIcSt11char_traitsIcESaIcEEESaIS5_EEixEm
FN:113,118,_ZNSt12_Vector_baseIPKvSaIS1_EE17_Vector_impl_data12_M_copy_dataERKS4_
FN:1145,1149,_ZNKSt6vectorIPKvSaIS1_EEixEm
FN:1145,1149,_ZNKSt6vectorISt10shared_ptrIN7testing8internal15ExpectationBaseEESaIS4_EEixEm
FN:1209,1213,_ZNSt6vectorINSt7__cxx1112basic_stringIcSt11char_traitsIcESaIcEEESaIS5_EE5frontEv
FN:122,130,_ZNSt12_Vector_baseIPKvSaIS1_EE17_Vector_impl_data12_M_swap_dataERS4_
FN:1233,1237,_ZNSt6vectorINSt7__cxx1112basic_stringIcSt11char_traitsIcESaIcEEESaIS5_EE4backEv
FN:1233,1237,_ZNSt6vectorIPKvSaIS1_EE4backEv
FN:1281,1293,_ZNSt6vectorINSt7__cxx1112basic_stringIcSt11char_traitsIcESaIcEEESaIS5_EE9push_backERKS5_
FN:1281,1293,_ZNSt6vectorISt10shared_ptrIN7testing8internal15ExpectationBaseEESaIS4_EE9push_backERKS4_
FN:1298,1299,_ZNSt6vectorIPKvSaIS1_EE9push_backEOS1_
FN:137,143,_ZNSt12_Vector_baseINSt7__cxx1112basic_stringIcSt11char_traitsIcESaIcEEESaIS5_EE12_Vector_implC2Ev
FN:137,143,_ZNSt12_Vector_baseIPKvSaIS1_EE12_Vector_implC2Ev
FN:146,148,_ZNSt12_Vector_baseINSt7__cxx1112basic_stringIcSt11char_traitsIcESaIcEEESaIS5_EE12_Vector_implC2ERKS6_
FN:154,156,_ZNSt12_Vector_baseINSt7__cxx1112basic_stringIcSt11char_traitsIcESaIcEEESaIS5_EE12_Vector_implC2EOS8_
FN:1586,1595,_ZNSt6vectorIPKvSaIS1_EE4swapERS3_
FN:1687,1698,_ZNSt6vectorINSt7__cxx1112basic_stringIcSt11char_traitsIcESaIcEEESaIS5_EE19_M_range_initializeIN9__gnu_cxx17__normal_iteratorIPKS5_S7_EEEEvT_SE_St20forward_iterator_tag
FN:1687,1698,_ZNSt6vectorINSt7__cxx1112basic_stringIcSt11char_traitsIcESaIcEEESaIS5_EE19_M_range_initializeIPKS5_EEvT_SB_St20forward_iterator_tag
FN:1896,1903,_ZNKSt6vectorINSt7__cxx1112basic_stringIcSt11char_traitsIcESaIcEEESaIS5_EE12_M_check_lenEmPKc
FN:1896,1903,_ZNKSt6vectorIPKvSaIS1_EE12_M_check_lenEmPKc
FN:1896,1903,_ZNKSt6vectorISt10shared_ptrIN7testing8internal15ExpectationBaseEESaIS4_EE12_M_check_lenEmPKc
FN:1907,1913,_ZNSt6vectorINSt7__cxx1112basic_stringIcSt11char_traitsIcESaIcEEESaIS5_EE17_S_check_init_lenEmRKS6_
FN:1916,1925,_ZNSt6vectorINSt7__cxx1112basic_stringIcSt11char_traitsIcESaIcEEESaIS5_EE11_S_max_sizeERKS6_
FN:1916,1925,_ZNSt6vectorIPKvSaIS1_EE11_S_max_sizeERKS2_
FN:1916,1925,_ZNSt6vectorISt10shared_ptrIN7testing8internal15ExpectationBaseEESaIS4_EE11_S_max_sizeERKS5_
FN:301,302,_ZNSt12_Vector_baseINSt7__cxx1112basic_stringIcSt11char_traitsIcESaIcEEESaIS5_EE19_M_get_Tp_allocatorEv
FN:301,302,_ZNSt12_Vector_baseIPKvSaIS1_EE19_M_get_Tp_allocatorEv
FN:301,302,_ZNSt12_Vector_baseISt10shared_ptrIN7testing8internal15ExpectationBaseEESaIS4_EE19_M_get_Tp_allocatorEv
FN:306,307,_ZNKSt12_Vector_baseINSt7__cxx1112basic_stringIcSt11char_traitsIcESaIcEEESaIS5_EE19_M_get_Tp_allocatorEv
FN:306,307,_ZNKSt12_Vector_baseIPKvSaIS1_EE19_M_get_Tp_allocatorEv
FN:306,307,_ZNKSt12_Vector_baseISt10shared_ptrIN7testing8internal15ExpectationBaseEESaIS4_EE19_M_get_Tp_allocatorEv
FN:315,315,_ZNSt12_Vector_baseINSt7__cxx1112basic_stringIcSt11char_traitsIcESaIcEEESaIS5_EEC2Ev
FN:315,315,_ZNSt12_Vector_baseIPKvSaIS1_EEC2Ev
FN:321,322,_ZNSt12_Vector_baseINSt7__cxx1112basic_stringIcSt11char_traitsIcESaIcEEESaIS5_EEC2ERKS6_
FN:338,338,_ZNSt12_Vector_baseINSt7__cxx1112basic_stringIcSt11char_traitsIcESaIcEEESaIS5_EEC2EOS7_
FN:367,371,_ZNSt12_Vector_baseINSt7__cxx1112basic_stringIcSt11char_traitsIcESaIcEEESaIS5_EED2Ev
FN:367,371,_ZNSt12_Vector_baseIPKvSaIS1_EED2Ev
FN:378,382,_ZNSt12_Vector_baseINSt7__cxx1112basic_stringIcSt11char_traitsIcESaIcEEESaIS5_EE11_M_allocateEm
FN:378,382,_ZNSt12_Vector_baseIPKvSaIS1_EE11_M_allocateEm
FN:378,382,_ZNSt12_Vector_baseISt10shared_ptrIN7testing8internal15ExpectationBaseEESaIS4_EE11_M_allocateEm
FN:386,391,_ZNSt12_Vector_baseINSt7__cxx1112basic_stringIcSt11char_traitsIcESaIcEEESaIS5_EE13_M_deallocateEPS5_m
FN:386,391,_ZNSt12_Vector_baseIPKvSaIS1_EE13_M_deallocateEPS1_m
FN:386,391,_ZNSt12_Vector_baseISt10shared_ptrIN7testing8internal15ExpectationBaseEESaIS4_EE13_M_deallocateEPS4_m
FN:504,514,_ZNSt6vectorINSt7__cxx1112basic_stringIcSt11char_traitsIcESaIcEEESaIS5_EE11_S_relocateEPS5_S8_S8_RS6_
FN:504,514,_ZNSt6vectorIPKvSaIS1_EE11_S_relocateEPS1_S4_S4_RS2_
FN:504,514,_ZNSt6vectorISt10shared_ptrIN7testing8internal15ExpectationBaseEESaIS4_EE11_S_relocateEPS4_S7_S7_RS5_
FN:531,531,_ZNSt6vectorINSt7__cxx1112basic_stringIcSt11char_traitsIcESaIcEEESaIS5_EEC2Ev
FN:531,531,_ZNSt6vectorIPKvSaIS1_EEC2Ev
FN:620,620,_ZNSt6vectorINSt7__cxx1112basic_stringIcSt11char_traitsIcESaIcEEESaIS5_EEC2EOS7_
FN:678,684,_ZNSt6vectorINSt7__cxx1112basic_stringIcSt11char_traitsIcESaIcEEESaIS5_EEC2ESt16initializer_listIS5_ERKS6_
FN:707,713,_ZNSt6vectorINSt7__cxx1112basic_stringIcSt11char_traitsIcESaIcEEESaIS5_EEC2IN9__gnu_cxx17__normal_iteratorIPKS5_S7_EEvEET_SE_RKS6_
FN:733,738,_ZNSt6vectorINSt7__cxx1112basic_stringIcSt11char_traitsIcESaIcEEESaIS5_EED2Ev
FN:733,738,_ZNSt6vectorIPKvSaIS1_EED2Ev
FN:873,874,_ZNSt6vectorINSt7__cxx1112basic_stringIcSt11char_traitsIcESaIcEEESaIS5_EE5beginEv
FN:873,874,_ZNSt6vectorIPKvSaIS1_EE5beginEv
FN:873,874,_ZNSt6vectorISt10shared_ptrIN7testing8internal15ExpectationBaseEESaIS4_EE5beginEv
FN:883,884,_ZNKSt6vectorINSt7__cxx1112basic_stringIcSt11char_traitsIcESaIcEEESaIS5_EE5beginEv
FN:883,884,_ZNKSt6vectorIPKvSaIS1_EE5beginEv
FN:883,884,_ZNKSt6vectorISt10shared_ptrIN7testing8internal15ExpectationBaseEESaIS4_EE5beginEv
FN:893,894,_ZNSt6vectorINSt7__cxx1112basic_stringIcSt11char_traitsIcESaIcEEESaIS5_EE3endEv
FN:893,894,_ZNSt6vectorIPKvSaIS1_EE3endEv
FN:893,894,_ZNSt6vectorISt10shared_ptrIN7testing8internal15ExpectationBaseEESaIS4_EE3endEv
FN:903,904,_ZNKSt6vectorINSt7__cxx1112basic_stringIcSt11char_traitsIcESaIcEEESaIS5_EE3endEv
FN:903,904,_ZNKSt6vectorIPKvSaIS1_EE3endEv
FN:903,904,_ZNKSt6vectorISt10shared_ptrIN7testing8internal15ExpectationBaseEESaIS4_EE3endEv
FN:923,924,_ZNKSt6vectorIPKvSaIS1_EE6rbeginEv
FN:923,924,_ZNKSt6vectorISt10shared_ptrIN7testing8internal15ExpectationBaseEESaIS4_EE6rbeginEv
FN:943,944,_ZNKSt6vectorIPKvSaIS1_EE4rendEv
FN:943,944,_ZNKSt6vectorISt10shared_ptrIN7testing8internal15ExpectationBaseEESaIS4_EE4rendEv
FN:99,101,_ZNSt12_Vector_baseINSt7__cxx1112basic_stringIcSt11char_traitsIcESaIcEEESaIS5_EE17_Vector_impl_dataC2Ev
FN:99,101,_ZNSt12_Vector_baseIPKvSaIS1_EE17_Vector_impl_dataC2Ev
FN:992,993,_ZNKSt6vectorINSt7__cxx1112basic_stringIcSt11char_traitsIcESaIcEEESaIS5_EE4sizeEv
FN:992,993,_ZNKSt6vectorIPKvSaIS1_EE4sizeEv
FN:992,993,_ZNKSt6vectorISt10shared_ptrIN7testing8internal15ExpectationBaseEESaIS4_EE4sizeEv
FN:998,999,_ZNKSt6vectorINSt7__cxx1112basic_stringIcSt11char_traitsIcESaIcEEESaIS5_EE8max_sizeEv
FN:998,999,_ZNKSt6vectorIPKvSaIS1_EE8max_sizeEv
FN:998,999,_ZNKSt6vectorISt10shared_ptrIN7testing8internal15ExpectationBaseEESaIS4_EE8max_sizeEv
FNDA:6,_ZNSt12_Vector_baseINSt7__cxx1112basic_stringIcSt11char_traitsIcESaIcEEESaIS5_EE17_Vector_impl_dataC2EOS8_
FNDA:14,_ZNKSt6vectorINSt7__cxx1112basic_stringIcSt11char_traitsIcESaIcEEESaIS5_EE5emptyEv
FNDA:4,_ZNSt6vectorINSt7__cxx1112basic_stringIcSt11char_traitsIcESaIcEEESaIS5_EEixEm
FNDA:18,_ZNSt12_Vector_baseIPKvSaIS1_EE17_Vector_impl_data12_M_copy_dataERKS4_
FNDA:1,_ZNKSt6vectorIPKvSaIS1_EEixEm
FNDA:0,_ZNKSt6vectorISt10shared_ptrIN7testing8internal15ExpectationBaseEESaIS4_EEixEm
FNDA:12,_ZNSt6vectorINSt7__cxx1112basic_stringIcSt11char_traitsIcESaIcEEESaIS5_EE5frontEv
FNDA:6,_ZNSt12_Vector_baseIPKvSaIS1_EE17_Vector_impl_data12_M_swap_dataERS4_
FNDA:64,_ZNSt6vectorINSt7__cxx1112basic_stringIcSt11char_traitsIcESaIcEEESaIS5_EE4backEv
FNDA:1,_ZNSt6vectorIPKvSaIS1_EE4backEv
FNDA:26,_ZNSt6vectorINSt7__cxx1112basic_stringIcSt11char_traitsIcESaIcEEESaIS5_EE9push_backERKS5_
FNDA:6,_ZNSt6vectorISt10shared_ptrIN7testing8internal15ExpectationBaseEESaIS4_EE9push_backERKS4_
FNDA:1,_ZNSt6vectorIPKvSaIS1_EE9push_backEOS1_
FNDA:457,_ZNSt12_Vector_baseINSt7__cxx1112basic_stringIcSt11char_traitsIcESaIcEEESaIS5_EE12_Vector_implC2Ev
FNDA:18,_ZNSt12_Vector_baseIPKvSaIS1_EE12_Vector_implC2Ev
FNDA:91,_ZNSt12_Vector_baseINSt7__cxx1112basic_stringIcSt11char_traitsIcESaIcEEESaIS5_EE12_Vector_implC2ERKS6_
FNDA:6,_ZNSt12_Vector_baseINSt7__cxx1112basic_stringIcSt11char_traitsIcESaIcEEESaIS5_EE12_Vector_implC2EOS8_
FNDA:6,_ZNSt6vectorIPKvSaIS1_EE4swapERS3_
FNDA:5,_ZNSt6vectorINSt7__cxx1112basic_stringIcSt11char_traitsIcESaIcEEESaIS5_EE19_M_range_initializeIN9__gnu_cxx17__normal_iteratorIPKS5_S7_EEEEvT_SE_St20forward_iterator_tag
FNDA:1,_ZNSt6vectorINSt7__cxx1112basic_stringIcSt11char_traitsIcESaIcEEESaIS5_EE19_M_range_initializeIPKS5_EEvT_SB_St20forward_iterator_tag
FNDA:213,_ZNKSt6vectorINSt7__cxx1112basic_stringIcSt11char_traitsIcESaIcEEESaIS5_EE12_M_check_lenEmPKc
FNDA:1,_ZNKSt6vectorIPKvSaIS1_EE12_M_check_lenEmPKc
FNDA:5,_ZNKSt6vectorISt10shared_ptrIN7testing8internal15ExpectationBaseEESaIS4_EE12_M_check_lenEmPKc
FNDA:6,_ZNSt6vectorINSt7__cxx1112basic_stringIcSt11char_traitsIcESaIcEEESaIS5_EE17_S_check_init_lenEmRKS6_
FNDA:599,_ZNSt6vectorINSt7__cxx1112basic_stringIcSt11char_traitsIcESaIcEEESaIS5_EE11_S_max_sizeERKS6_
FNDA:2,_ZNSt6vectorIPKvSaIS1_EE11_S_max_sizeERKS2_
FNDA:10,_ZNSt6vectorISt10shared_ptrIN7testing8internal15ExpectationBaseEESaIS4_EE11_S_max_sizeERKS5_
FNDA:1499,_ZNSt12_Vector_baseINSt7__cxx1112basic_stringIcSt11char_traitsIcESaIcEEESaIS5_EE19_M_get_Tp_allocatorEv
FNDA:32,_ZNSt12_Vector_baseIPKvSaIS1_EE19_M_get_Tp_allocatorEv
FNDA:37,_ZNSt12_Vector_baseISt10shared_ptrIN7testing8internal15ExpectationBaseEESaIS4_EE19_M_get_Tp_allocatorEv
FNDA:566,_ZNKSt12_Vector_baseINSt7__cxx1112basic_stringIcSt11char_traitsIcESaIcEEESaIS5_EE19_M_get_Tp_allocatorEv
FNDA:2,_ZNKSt12_Vector_baseIPKvSaIS1_EE19_M_get_Tp_allocatorEv
FNDA:10,_ZNKSt12_Vector_baseISt10shared_ptrIN7testing8internal15ExpectationBaseEESaIS4_EE19_M_get_Tp_allocatorEv
FNDA:457,_ZNSt12_Vector_baseINSt7__cxx1112basic_stringIcSt11char_traitsIcESaIcEEESaIS5_EEC2Ev
FNDA:18,_ZNSt12_Vector_baseIPKvSaIS1_EEC2Ev
FNDA:47,_ZNSt12_Vector_baseINSt7__cxx1112basic_stringIcSt11char_traitsIcESaIcEEESaIS5_EEC2ERKS6_
FNDA:6,_ZNSt12_Vector_baseINSt7__cxx1112basic_stringIcSt11char_traitsIcESaIcEEESaIS5_EEC2EOS7_
FNDA:554,_ZNSt12_Vector_baseINSt7__cxx1112basic_stringIcSt11char_traitsIcESaIcEEESaIS5_EED2Ev
FNDA:18,_ZNSt12_Vector_baseIPKvSaIS1_EED2Ev
FNDA:351,_ZNSt12_Vector_baseINSt7__cxx1112basic_stringIcSt11char_traitsIcESaIcEEESaIS5_EE11_M_allocateEm
FNDA:1,_ZNSt12_Vector_baseIPKvSaIS1_EE11_M_allocateEm
FNDA:5,_ZNSt12_Vector_baseISt10shared_ptrIN7testing8internal15ExpectationBaseEESaIS4_EE11_M_allocateEm
FNDA:855,_ZNSt12_Vector_baseINSt7__cxx1112basic_stringIcSt11char_traitsIcESaIcEEESaIS5_EE13_M_deallocateEPS5_m
FNDA:19,_ZNSt12_Vector_baseIPKvSaIS1_EE13_M_deallocateEPS1_m
FNDA:17,_ZNSt12_Vector_baseISt10shared_ptrIN7testing8internal15ExpectationBaseEESaIS4_EE13_M_deallocateEPS4_m
FNDA:464,_ZNSt6vectorINSt7__cxx1112basic_stringIcSt11char_traitsIcESaIcEEESaIS5_EE11_S_relocateEPS5_S8_S8_RS6_
FNDA:2,_ZNSt6vectorIPKvSaIS1_EE11_S_relocateEPS1_S4_S4_RS2_
FNDA:10,_ZNSt6vectorISt10shared_ptrIN7testing8internal15ExpectationBaseEESaIS4_EE11_S_relocateEPS4_S7_S7_RS5_
FNDA:457,_ZNSt6vectorINSt7__cxx1112basic_stringIcSt11char_traitsIcESaIcEEESaIS5_EEC2Ev
FNDA:18,_ZNSt6vectorIPKvSaIS1_EEC2Ev
FNDA:6,_ZNSt6vectorINSt7__cxx1112basic_stringIcSt11char_traitsIcESaIcEEESaIS5_EEC2EOS7_
FNDA:1,_ZNSt6vectorINSt7__cxx1112basic_stringIcSt11char_traitsIcESaIcEEESaIS5_EEC2ESt16initializer_listIS5_ERKS6_
FNDA:5,_ZNSt6vectorINSt7__cxx1112basic_stringIcSt11char_traitsIcESaIcEEESaIS5_EEC2IN9__gnu_cxx17__normal_iteratorIPKS5_S7_EEvEET_SE_RKS6_
FNDA:554,_ZNSt6vectorINSt7__cxx1112basic_stringIcSt11char_traitsIcESaIcEEESaIS5_EED2Ev
FNDA:18,_ZNSt6vectorIPKvSaIS1_EED2Ev
FNDA:528,_ZNSt6vectorINSt7__cxx1112basic_stringIcSt11char_traitsIcESaIcEEESaIS5_EE5beginEv
FNDA:13,_ZNSt6vectorIPKvSaIS1_EE5beginEv
FNDA:11,_ZNSt6vectorISt10shared_ptrIN7testing8internal15ExpectationBaseEESaIS4_EE5beginEv
FNDA:226,_ZNKSt6vectorINSt7__cxx1112basic_stringIcSt11char_traitsIcESaIcEEESaIS5_EE5beginEv
FNDA:5,_ZNKSt6vectorIPKvSaIS1_EE5beginEv
FNDA:6,_ZNKSt6vectorISt10shared_ptrIN7testing8internal15ExpectationBaseEESaIS4_EE5beginEv
FNDA:546,_ZNSt6vectorINSt7__cxx1112basic_stringIcSt11char_traitsIcESaIcEEESaIS5_EE3endEv
FNDA:15,_ZNSt6vectorIPKvSaIS1_EE3endEv
FNDA:17,_ZNSt6vectorISt10shared_ptrIN7testing8internal15ExpectationBaseEESaIS4_EE3endEv
FNDA:769,_ZNKSt6vectorINSt7__cxx1112basic_stringIcSt11char_traitsIcESaIcEEESaIS5_EE3endEv
FNDA:5,_ZNKSt6vectorIPKvSaIS1_EE3endEv
FNDA:6,_ZNKSt6vectorISt10shared_ptrIN7testing8internal15ExpectationBaseEESaIS4_EE3endEv
FNDA:5,_ZNKSt6vectorIPKvSaIS1_EE6rbeginEv
FNDA:6,_ZNKSt6vectorISt10shared_ptrIN7testing8internal15ExpectationBaseEESaIS4_EE6rbeginEv
FNDA:5,_ZNKSt6vectorIPKvSaIS1_EE4rendEv
FNDA:6,_ZNKSt6vectorISt10shared_ptrIN7testing8internal15ExpectationBaseEESaIS4_EE4rendEv
FNDA:756,_ZNSt12_Vector_baseINSt7__cxx1112basic_stringIcSt11char_traitsIcESaIcEEESaIS5_EE17_Vector_impl_dataC2Ev
FNDA:24,_ZNSt12_Vector_baseIPKvSaIS1_EE17_Vector_impl_dataC2Ev
FNDA:1157,_ZNKSt6vectorINSt7__cxx1112basic_stringIcSt11char_traitsIcESaIcEEESaIS5_EE4sizeEv
FNDA:16,_ZNKSt6vectorIPKvSaIS1_EE4sizeEv
FNDA:26,_ZNKSt6vectorISt10shared_ptrIN7testing8internal15ExpectationBaseEESaIS4_EE4sizeEv
FNDA:496,_ZNKSt6vectorINSt7__cxx1112basic_stringIcSt11char_traitsIcESaIcEEESaIS5_EE8max_sizeEv
FNDA:2,_ZNKSt6vectorIPKvSaIS1_EE8max_sizeEv
FNDA:10,_ZNKSt6vectorISt10shared_ptrIN7testing8internal15ExpectationBaseEESaIS4_EE8max_sizeEv
FNF:79
FNH:78
DA:99,780
DA:100,780
DA:101,780
DA:105,6
DA:106,6
DA:107,6
DA:108,6
DA:113,18
DA:115,18
DA:116,18
DA:117,18
DA:118,18
DA:122,6
DA:126,6
DA:127,6
DA:128,6
DA:129,6
DA:130,6
DA:137,475
DA:142,475
DA:143,475
DA:146,91
DA:147,91
DA:148,91
DA:154,6
DA:155,12
DA:156,6
DA:301,1568
DA:302,1568
DA:306,578
DA:307,578
DA:315,475
DA:321,47
DA:322,47
DA:338,6
DA:367,572
DA:369,572
DA:370,572
DA:371,572
DA:378,357
DA:381,690
DA:386,891
DA:389,891
DA:390,333
DA:391,891
DA:504,476
DA:509,476
DA:531,475
DA:620,6
DA:678,1
DA:680,1
DA:682,1
DA:683,1
DA:684,1
DA:707,5
DA:709,5
DA:711,5
DA:712,5
DA:713,5
DA:733,572
DA:735,572
DA:736,572
DA:738,572
DA:873,552
DA:874,552
DA:883,237
DA:884,237
DA:893,578
DA:894,578
DA:903,780
DA:904,780
DA:923,11
DA:924,11
DA:943,11
DA:944,11
DA:992,1199
DA:993,1199
DA:998,508
DA:999,508
DA:1088,14
DA:1089,14
DA:1126,4
DA:1129,4
DA:1145,1
DA:1148,1
DA:1209,12
DA:1212,12
DA:1233,65
DA:1236,65
DA:1281,32
DA:1283,32
DA:1286,6
DA:1288,6
DA:1292,26
DA:1293,32
DA:1298,1
DA:1299,1
DA:1586,6
DA:1589,6
DA:1592,6
DA:1593,6
DA:1594,6
DA:1595,6
DA:1687,6
DA:1690,6
DA:1692,6
DA:1693,6
DA:1694,6
DA:1695,6
DA:1697,6
DA:1698,6
DA:1896,219
DA:1898,219
DA:1899,0
DA:1901,219
DA:1902,219
DA:1907,6
DA:1909,6
DA:1910,0
DA:1912,6
DA:1916,611
DA:1921,611
DA:1923,611
DA:1924,611
LF:124
LH:122
end_of_record
TN:
SF:/usr/include/c++/13/bits/unique_ptr.h
FN:1069,1070,_ZSt11make_uniqueIN4calc15InMemoryHistoryEJEENSt8__detail9_MakeUniqIT_E15__single_objectEDpOT0_
FN:1069,1070,_ZSt11make_uniqueIN4calc16SimpleCalculatorEJRNS0_15InMemoryHistoryEEENSt8__detail9_MakeUniqIT_E15__single_objectEDpOT0_
FN:1069,1070,_ZSt11make_uniqueINSt7__cxx1112basic_stringIcSt11char_traitsIcESaIcEEEJEENSt8__detail9_MakeUniqIT_E15__single_objectEDpOT0_
FN:174,174,_ZNSt15__uniq_ptr_implIN4calc15InMemoryHistoryESt14default_deleteIS1_EEC2Ev
FN:174,174,_ZNSt15__uniq_ptr_implIN4calc16SimpleCalculatorESt14default_deleteIS1_EEC2Ev
FN:174,174,_ZNSt15__uniq_ptr_implINSt7__cxx1112basic_stringIcSt11char_traitsIcESaIcEEESt14default_deleteIS5_EEC2Ev
FN:176,176,_ZNSt15__uniq_ptr_implIN4calc15InMemoryHistoryESt14default_deleteIS1_EEC2EPS1_
FN:176,176,_ZNSt15__uniq_ptr_implIN4calc16SimpleCalculatorESt14default_deleteIS1_EEC2EPS1_
FN:176,176,_ZNSt15__uniq_ptr_implINSt7__cxx1112basic_stringIcSt11char_traitsIcESaIcEEESt14default_deleteIS5_EEC2EPS5_
FN:189,194,_ZNSt15__uniq_ptr_implIN4calc15InMemoryHistoryESt14default_deleteIS1_EEaSEOS4_
FN:189,194,_ZNSt15__uniq_ptr_implIN4calc16SimpleCalculatorESt14default_deleteIS1_EEaSEOS4_
FN:189,194,_ZNSt15__uniq_ptr_implINSt7__cxx1112basic_stringIcSt11char_traitsIcESaIcEEESt14default_deleteIS5_EEaSEOS8_
FN:197,197,_ZNSt15__uniq_ptr_implIN4calc15InMemoryHistoryESt14default_deleteIS1_EE6_M_ptrEv
FN:197,197,_ZNSt15__uniq_ptr_implIN4calc16SimpleCalculatorESt14default_deleteIS1_EE6_M_ptrEv
FN:197,197,_ZNSt15__uniq_ptr_implINSt7__cxx1112basic_stringIcSt11char_traitsIcESaIcEEESt14default_deleteIS5_EE6_M_ptrEv
FN:197,197,_ZNSt15__uniq_ptr_implINSt7__cxx1118basic_stringstreamIcSt11char_traitsIcESaIcEEESt14default_deleteIS5_EE6_M_ptrEv
FN:199,199,_ZNKSt15__uniq_ptr_implIN4calc15InMemoryHistoryESt14default_deleteIS1_EE6_M_ptrEv
FN:199,199,_ZNKSt15__uniq_ptr_implIN4calc16SimpleCalculatorESt14default_deleteIS1_EE6_M_ptrEv
FN:199,199,_ZNKSt15__uniq_ptr_implIN7testing8internal11ThreadLocalIPNS0_8SequenceEE18ValueHolderFactoryESt14default_deleteIS6_EE6_M_ptrEv
FN:199,199,_ZNKSt15__uniq_ptr_implINSt7__cxx1112basic_stringIcSt11char_traitsIcESaIcEEESt14default_deleteIS5_EE6_M_ptrEv
FN:199,199,_ZNKSt15__uniq_ptr_implINSt7__cxx1118basic_stringstreamIcSt11char_traitsIcESaIcEEESt14default_deleteIS5_EE6_M_ptrEv
FN:201,201,_ZNSt15__uniq_ptr_implIN4calc15InMemoryHistoryESt14default_deleteIS1_EE10_M_deleterEv
FN:201,201,_ZNSt15__uniq_ptr_implIN4calc16SimpleCalculatorESt14default_deleteIS1_EE10_M_deleterEv
FN:201,201,_ZNSt15__uniq_ptr_implINSt7__cxx1112basic_stringIcSt11char_traitsIcESaIcEEESt14default_deleteIS5_EE10_M_deleterEv
FN:201,201,_ZNSt15__uniq_ptr_implINSt7__cxx1118basic_stringstreamIcSt11char_traitsIcESaIcEEESt14default_deleteIS5_EE10_M_deleterEv
FN:206,212,_ZNSt15__uniq_ptr_implIN4calc15InMemoryHistoryESt14default_deleteIS1_EE5resetEPS1_
FN:206,212,_ZNSt15__uniq_ptr_implIN4calc16SimpleCalculatorESt14default_deleteIS1_EE5resetEPS1_
FN:206,212,_ZNSt15__uniq_ptr_implINSt7__cxx1112basic_stringIcSt11char_traitsIcESaIcEEESt14default_deleteIS5_EE5resetEPS5_
FN:215,220,_ZNSt15__uniq_ptr_implIN4calc15InMemoryHistoryESt14default_deleteIS1_EE7releaseEv
FN:215,220,_ZNSt15__uniq_ptr_implIN4calc16SimpleCalculatorESt14default_deleteIS1_EE7releaseEv
FN:215,220,_ZNSt15__uniq_ptr_implINSt7__cxx1112basic_stringIcSt11char_traitsIcESaIcEEESt14default_deleteIS5_EE7releaseEv
FN:243,243,_ZNSt15__uniq_ptr_dataIN4calc15InMemoryHistoryESt14default_deleteIS1_ELb1ELb1EEaSEOS4_
FN:243,243,_ZNSt15__uniq_ptr_dataIN4calc16SimpleCalculatorESt14default_deleteIS1_ELb1ELb1EEaSEOS4_
FN:243,243,_ZNSt15__uniq_ptr_dataINSt7__cxx1112basic_stringIcSt11char_traitsIcESaIcEEESt14default_deleteIS5_ELb1ELb1EEaSEOS8_
FN:304,306,_ZNSt10unique_ptrIN4calc15InMemoryHistoryESt14default_deleteIS1_EEC2IS3_vEEv
FN:304,306,_ZNSt10unique_ptrIN4calc16SimpleCalculatorESt14default_deleteIS1_EEC2IS3_vEEv
FN:304,306,_ZNSt10unique_ptrINSt7__cxx1112basic_stringIcSt11char_traitsIcESaIcEEESt14default_deleteIS5_EEC2IS7_vEEv
FN:317,319,_ZNSt10unique_ptrIN4calc15InMemoryHistoryESt14default_deleteIS1_EEC2IS3_vEEPS1_
FN:317,319,_ZNSt10unique_ptrIN4calc16SimpleCalculatorESt14default_deleteIS1_EEC2IS3_vEEPS1_
FN:317,319,_ZNSt10unique_ptrINSt7__cxx1112basic_stringIcSt11char_traitsIcESaIcEEESt14default_deleteIS5_EEC2IS7_vEEPS5_
FN:398,406,_ZNSt10unique_ptrIN4calc15InMemoryHistoryESt14default_deleteIS1_EED2Ev
FN:398,406,_ZNSt10unique_ptrIN4calc16SimpleCalculatorESt14default_deleteIS1_EED2Ev
FN:398,406,_ZNSt10unique_ptrINSt7__cxx1112basic_stringIcSt11char_traitsIcESaIcEEESt14default_deleteIS5_EED2Ev
FN:398,406,_ZNSt10unique_ptrINSt7__cxx1118basic_stringstreamIcSt11char_traitsIcESaIcEEESt14default_deleteIS5_EED2Ev
FN:414,414,_ZNSt10unique_ptrIN4calc15InMemoryHistoryESt14default_deleteIS1_EEaSEOS4_
FN:414,414,_ZNSt10unique_ptrIN4calc16SimpleCalculatorESt14default_deleteIS1_EEaSEOS4_
FN:414,414,_ZNSt10unique_ptrINSt7__cxx1112basic_stringIcSt11char_traitsIcESaIcEEESt14default_deleteIS5_EEaSEOS8_
FN:451,455,_ZNKSt10unique_ptrIN4calc15InMemoryHistoryESt14default_deleteIS1_EEdeEv
FN:451,455,_ZNKSt10unique_ptrINSt7__cxx1118basic_stringstreamIcSt11char_traitsIcESaIcEEESt14default_deleteIS5_EEdeEv
FN:460,464,_ZNKSt10unique_ptrIN4calc16SimpleCalculatorESt14default_deleteIS1_EEptEv
FN:460,464,_ZNKSt10unique_ptrIN7testing8internal11ThreadLocalIPNS0_8SequenceEE18ValueHolderFactoryESt14default_deleteIS6_EEptEv
FN:460,464,_ZNKSt10unique_ptrINSt7__cxx1112basic_stringIcSt11char_traitsIcESaIcEEESt14default_deleteIS5_EEptEv
FN:469,470,_ZNKSt10unique_ptrIN4calc15InMemoryHistoryESt14default_deleteIS1_EE3getEv
FN:469,470,_ZNKSt10unique_ptrIN4calc16SimpleCalculatorESt14default_deleteIS1_EE3getEv
FN:469,470,_ZNKSt10unique_ptrIN7testing8internal11ThreadLocalIPNS0_8SequenceEE18ValueHolderFactoryESt14default_deleteIS6_EE3getEv
FN:469,470,_ZNKSt10unique_ptrINSt7__cxx1112basic_stringIcSt11char_traitsIcESaIcEEESt14default_deleteIS5_EE3getEv
FN:469,470,_ZNKSt10unique_ptrINSt7__cxx1118basic_stringstreamIcSt11char_traitsIcESaIcEEESt14default_deleteIS5_EE3getEv
FN:475,476,_ZNSt10unique_ptrIN4calc15InMemoryHistoryESt14default_deleteIS1_EE11get_deleterEv
FN:475,476,_ZNSt10unique_ptrIN4calc16SimpleCalculatorESt14default_deleteIS1_EE11get_deleterEv
FN:475,476,_ZNSt10unique_ptrINSt7__cxx1112basic_stringIcSt11char_traitsIcESaIcEEESt14default_deleteIS5_EE11get_deleterEv
FN:475,476,_ZNSt10unique_ptrINSt7__cxx1118basic_stringstreamIcSt11char_traitsIcESaIcEEESt14default_deleteIS5_EE11get_deleterEv
FN:486,487,_ZNKSt10unique_ptrINSt7__cxx1112basic_stringIcSt11char_traitsIcESaIcEEESt14default_deleteIS5_EEcvbEv
FN:505,510,_ZNSt10unique_ptrIN4calc15InMemoryHistoryESt14default_deleteIS1_EE5resetEPS1_
FN:505,510,_ZNSt10unique_ptrIN4calc16SimpleCalculatorESt14default_deleteIS1_EE5resetEPS1_
FN:837,838,_ZSteqINSt7__cxx1112basic_stringIcSt11char_traitsIcESaIcEEESt14default_deleteIS5_EEbRKSt10unique_ptrIT_T0_EDn
FN:861,862,_ZStneINSt7__cxx1112basic_stringIcSt11char_traitsIcESaIcEEESt14default_deleteIS5_EEbRKSt10unique_ptrIT_T0_EDn
FN:93,100,_ZNKSt14default_deleteIN4calc15InMemoryHistoryEEclEPS1_
FN:93,100,_ZNKSt14default_deleteIN4calc16SimpleCalculatorEEclEPS1_
FN:93,100,_ZNKSt14default_deleteINSt7__cxx1112basic_stringIcSt11char_traitsIcESaIcEEEEclEPS5_
FN:93,100,_ZNKSt14default_deleteINSt7__cxx1118basic_stringstreamIcSt11char_traitsIcESaIcEEEEclEPS5_
FNDA:11,_ZSt11make_uniqueIN4calc15InMemoryHistoryEJEENSt8__detail9_MakeUniqIT_E15__single_objectEDpOT0_
FNDA:11,_ZSt11make_uniqueIN4calc16SimpleCalculatorEJRNS0_15InMemoryHistoryEEENSt8__detail9_MakeUniqIT_E15__single_objectEDpOT0_
FNDA:0,_ZSt11make_uniqueINSt7__cxx1112basic_stringIcSt11char_traitsIcESaIcEEEJEENSt8__detail9_MakeUniqIT_E15__single_objectEDpOT0_
FNDA:11,_ZNSt15__uniq_ptr_implIN4calc15InMemoryHistoryESt14default_deleteIS1_EEC2Ev
FNDA:11,_ZNSt15__uniq_ptr_implIN4calc16SimpleCalculatorESt14default_deleteIS1_EEC2Ev
FNDA:22,_ZNSt15__uniq_ptr_implINSt7__cxx1112basic_stringIcSt11char_traitsIcESaIcEEESt14default_deleteIS5_EEC2Ev
FNDA:11,_ZNSt15__uniq_ptr_implIN4calc15InMemoryHistoryESt14default_deleteIS1_EEC2EPS1_
FNDA:11,_ZNSt15__uniq_ptr_implIN4calc16SimpleCalculatorESt14default_deleteIS1_EEC2EPS1_
FNDA:0,_ZNSt15__uniq_ptr_implINSt7__cxx1112basic_stringIcSt11char_traitsIcESaIcEEESt14default_deleteIS5_EEC2EPS5_
FNDA:11,_ZNSt15__uniq_ptr_implIN4calc15InMemoryHistoryESt14default_deleteIS1_EEaSEOS4_
FNDA:11,_ZNSt15__uniq_ptr_implIN4calc16SimpleCalculatorESt14default_deleteIS1_EEaSEOS4_
FNDA:0,_ZNSt15__uniq_ptr_implINSt7__cxx1112basic_stringIcSt11char_traitsIcESaIcEEESt14default_deleteIS5_EEaSEOS8_
FNDA:99,_ZNSt15__uniq_ptr_implIN4calc15InMemoryHistoryESt14default_deleteIS1_EE6_M_ptrEv
FNDA:99,_ZNSt15__uniq_ptr_implIN4calc16SimpleCalculatorESt14default_deleteIS1_EE6_M_ptrEv
FNDA:30,_ZNSt15__uniq_ptr_implINSt7__cxx1112basic_stringIcSt11char_traitsIcESaIcEEESt14default_deleteIS5_EE6_M_ptrEv
FNDA:2624,_ZNSt15__uniq_ptr_implINSt7__cxx1118basic_stringstreamIcSt11char_traitsIcESaIcEEESt14default_deleteIS5_EE6_M_ptrEv
FNDA:11,_ZNKSt15__uniq_ptr_implIN4calc15InMemoryHistoryESt14default_deleteIS1_EE6_M_ptrEv
FNDA:11,_ZNKSt15__uniq_ptr_implIN4calc16SimpleCalculatorESt14default_deleteIS1_EE6_M_ptrEv
FNDA:2,_ZNKSt15__uniq_ptr_implIN7testing8internal11ThreadLocalIPNS0_8SequenceEE18ValueHolderFactoryESt14default_deleteIS6_EE6_M_ptrEv
FNDA:0,_ZNKSt15__uniq_ptr_implINSt7__cxx1112basic_stringIcSt11char_traitsIcESaIcEEESt14default_deleteIS5_EE6_M_ptrEv
FNDA:11718,_ZNKSt15__uniq_ptr_implINSt7__cxx1118basic_stringstreamIcSt11char_traitsIcESaIcEEESt14default_deleteIS5_EE6_M_ptrEv
FNDA:33,_ZNSt15__uniq_ptr_implIN4calc15InMemoryHistoryESt14default_deleteIS1_EE10_M_deleterEv
FNDA:33,_ZNSt15__uniq_ptr_implIN4calc16SimpleCalculatorESt14default_deleteIS1_EE10_M_deleterEv
FNDA:0,_ZNSt15__uniq_ptr_implINSt7__cxx1112basic_stringIcSt11char_traitsIcESaIcEEESt14default_deleteIS5_EE10_M_deleterEv
FNDA:1312,_ZNSt15__uniq_ptr_implINSt7__cxx1118basic_stringstreamIcSt11char_traitsIcESaIcEEESt14default_deleteIS5_EE10_M_deleterEv
FNDA:22,_ZNSt15__uniq_ptr_implIN4calc15InMemoryHistoryESt14default_deleteIS1_EE5resetEPS1_
FNDA:22,_ZNSt15__uniq_ptr_implIN4calc16SimpleCalculatorESt14default_deleteIS1_EE5resetEPS1_
FNDA:0,_ZNSt15__uniq_ptr_implINSt7__cxx1112basic_stringIcSt11char_traitsIcESaIcEEESt14default_deleteIS5_EE5resetEPS5_
FNDA:11,_ZNSt15__uniq_ptr_implIN4calc15InMemoryHistoryESt14default_deleteIS1_EE7releaseEv
FNDA:11,_ZNSt15__uniq_ptr_implIN4calc16SimpleCalculatorESt14default_deleteIS1_EE7releaseEv
FNDA:0,_ZNSt15__uniq_ptr_implINSt7__cxx1112basic_stringIcSt11char_traitsIcESaIcEEESt14default_deleteIS5_EE7releaseEv
FNDA:11,_ZNSt15__uniq_ptr_dataIN4calc15InMemoryHistoryESt14default_deleteIS1_ELb1ELb1EEaSEOS4_
FNDA:11,_ZNSt15__uniq_ptr_dataIN4calc16SimpleCalculatorESt14default_deleteIS1_ELb1ELb1EEaSEOS4_
FNDA:0,_ZNSt15__uniq_ptr_dataINSt7__cxx1112basic_stringIcSt11char_traitsIcESaIcEEESt14default_deleteIS5_ELb1ELb1EEaSEOS8_
FNDA:11,_ZNSt10unique_ptrIN4calc15InMemoryHistoryESt14default_deleteIS1_EEC2IS3_vEEv
FNDA:11,_ZNSt10unique_ptrIN4calc16SimpleCalculatorESt14default_deleteIS1_EEC2IS3_vEEv
FNDA:22,_ZNSt10unique_ptrINSt7__cxx1112basic_stringIcSt11char_traitsIcESaIcEEESt14default_deleteIS5_EEC2IS7_vEEv
FNDA:11,_ZNSt10unique_ptrIN4calc15InMemoryHistoryESt14default_deleteIS1_EEC2IS3_vEEPS1_
FNDA:11,_ZNSt10unique_ptrIN4calc16SimpleCalculatorESt14default_deleteIS1_EEC2IS3_vEEPS1_
FNDA:0,_ZNSt10unique_ptrINSt7__cxx1112basic_stringIcSt11char_traitsIcESaIcEEESt14default_deleteIS5_EEC2IS7_vEEPS5_
FNDA:22,_ZNSt10unique_ptrIN4calc15InMemoryHistoryESt14default_deleteIS1_EED2Ev
FNDA:22,_ZNSt10unique_ptrIN4calc16SimpleCalculatorESt14default_deleteIS1_EED2Ev
FNDA:30,_ZNSt10unique_ptrINSt7__cxx1112basic_stringIcSt11char_traitsIcESaIcEEESt14default_deleteIS5_EED2Ev
FNDA:1312,_ZNSt10unique_ptrINSt7__cxx1118basic_stringstreamIcSt11char_traitsIcESaIcEEESt14default_deleteIS5_EED2Ev
FNDA:11,_ZNSt10unique_ptrIN4calc15InMemoryHistoryESt14default_deleteIS1_EEaSEOS4_
FNDA:11,_ZNSt10unique_ptrIN4calc16SimpleCalculatorESt14default_deleteIS1_EEaSEOS4_
FNDA:0,_ZNSt10unique_ptrINSt7__cxx1112basic_stringIcSt11char_traitsIcESaIcEEESt14default_deleteIS5_EEaSEOS8_
FNDA:11,_ZNKSt10unique_ptrIN4calc15InMemoryHistoryESt14default_deleteIS1_EEdeEv
FNDA:10644,_ZNKSt10unique_ptrINSt7__cxx1118basic_stringstreamIcSt11char_traitsIcESaIcEEESt14default_deleteIS5_EEdeEv
FNDA:11,_ZNKSt10unique_ptrIN4calc16SimpleCalculatorESt14default_deleteIS1_EEptEv
FNDA:2,_ZNKSt10unique_ptrIN7testing8internal11ThreadLocalIPNS0_8SequenceEE18ValueHolderFactoryESt14default_deleteIS6_EEptEv
FNDA:0,_ZNKSt10unique_ptrINSt7__cxx1112basic_stringIcSt11char_traitsIcESaIcEEESt14default_deleteIS5_EEptEv
FNDA:11,_ZNKSt10unique_ptrIN4calc15InMemoryHistoryESt14default_deleteIS1_EE3getEv
FNDA:11,_ZNKSt10unique_ptrIN4calc16SimpleCalculatorESt14default_deleteIS1_EE3getEv
FNDA:2,_ZNKSt10unique_ptrIN7testing8internal11ThreadLocalIPNS0_8SequenceEE18ValueHolderFactoryESt14default_deleteIS6_EE3getEv
FNDA:0,_ZNKSt10unique_ptrINSt7__cxx1112basic_stringIcSt11char_traitsIcESaIcEEESt14default_deleteIS5_EE3getEv
FNDA:11718,_ZNKSt10unique_ptrINSt7__cxx1118basic_stringstreamIcSt11char_traitsIcESaIcEEESt14default_deleteIS5_EE3getEv
FNDA:0,_ZNSt10unique_ptrIN4calc15InMemoryHistoryESt14default_deleteIS1_EE11get_deleterEv
FNDA:0,_ZNSt10unique_ptrIN4calc16SimpleCalculatorESt14default_deleteIS1_EE11get_deleterEv
FNDA:0,_ZNSt10unique_ptrINSt7__cxx1112basic_stringIcSt11char_traitsIcESaIcEEESt14default_deleteIS5_EE11get_deleterEv
FNDA:1312,_ZNSt10unique_ptrINSt7__cxx1118basic_stringstreamIcSt11char_traitsIcESaIcEEESt14default_deleteIS5_EE11get_deleterEv
FNDA:0,_ZNKSt10unique_ptrINSt7__cxx1112basic_stringIcSt11char_traitsIcESaIcEEESt14default_deleteIS5_EEcvbEv
FNDA:11,_ZNSt10unique_ptrIN4calc15InMemoryHistoryESt14default_deleteIS1_EE5resetEPS1_
FNDA:11,_ZNSt10unique_ptrIN4calc16SimpleCalculatorESt14default_deleteIS1_EE5resetEPS1_
FNDA:0,_ZSteqINSt7__cxx1112basic_stringIcSt11char_traitsIcESaIcEEESt14default_deleteIS5_EEbRKSt10unique_ptrIT_T0_EDn
FNDA:0,_ZStneINSt7__cxx1112basic_stringIcSt11char_traitsIcESaIcEEESt14default_deleteIS5_EEbRKSt10unique_ptrIT_T0_EDn
FNDA:11,_ZNKSt14default_deleteIN4calc15InMemoryHistoryEEclEPS1_
FNDA:11,_ZNKSt14default_deleteIN4calc16SimpleCalculatorEEclEPS1_
FNDA:0,_ZNKSt14default_deleteINSt7__cxx1112basic_stringIcSt11char_traitsIcESaIcEEEEclEPS5_
FNDA:1312,_ZNKSt14default_deleteINSt7__cxx1118basic_stringstreamIcSt11char_traitsIcESaIcEEEEclEPS5_
FNF:70
FNH:51
DA:93,1334
DA:99,1334
DA:100,1334
DA:174,44
DA:176,22
DA:189,22
DA:191,22
DA:192,22
DA:193,22
DA:197,2852
DA:199,11742
DA:201,1378
DA:206,44
DA:208,44
DA:209,44
DA:210,44
DA:211,22
DA:212,44
DA:215,22
DA:217,22
DA:218,22
DA:219,22
DA:243,22
DA:304,44
DA:305,44
DA:306,44
DA:317,22
DA:318,22
DA:319,22
DA:398,1386
DA:402,1386
DA:403,1386
DA:404,1312
DA:405,1386
DA:406,1386
DA:414,22
DA:451,10655
DA:453,10655
DA:454,10655
DA:460,13
DA:463,13
DA:469,11742
DA:470,11742
DA:475,1312
DA:476,1312
DA:486,0
DA:487,0
DA:505,22
DA:509,22
DA:510,22
DA:837,0
DA:838,0
DA:861,0
DA:862,0
DA:1069,22
DA:1070,22
LF:56
LH:50
end_of_record
TN:
SF:/usr/include/c++/13/bits/vector.tcc
FN:111,127,_ZNSt6vectorIPKvSaIS1_EE12emplace_backIJS1_EEERS1_DpOT_
FN:445,524,_ZNSt6vectorINSt7__cxx1112basic_stringIcSt11char_traitsIcESaIcEEESaIS5_EE17_M_realloc_insertIJRKS5_EEEvN9__gnu_cxx17__normal_iteratorIPS5_S7_EEDpOT_
FN:445,524,_ZNSt6vectorIPKvSaIS1_EE17_M_realloc_insertIJS1_EEEvN9__gnu_cxx17__normal_iteratorIPS1_S3_EEDpOT_
FN:445,524,_ZNSt6vectorISt10shared_ptrIN7testing8internal15ExpectationBaseEESaIS4_EE17_M_realloc_insertIJRKS4_EEEvN9__gnu_cxx17__normal_iteratorIPS4_S6_EEDpOT_
FNDA:1,_ZNSt6vectorIPKvSaIS1_EE12emplace_backIJS1_EEERS1_DpOT_
FNDA:21,_ZNSt6vectorINSt7__cxx1112basic_stringIcSt11char_traitsIcESaIcEEESaIS5_EE17_M_realloc_insertIJRKS5_EEEvN9__gnu_cxx17__normal_iteratorIPS5_S7_EEDpOT_
FNDA:1,_ZNSt6vectorIPKvSaIS1_EE17_M_realloc_insertIJS1_EEEvN9__gnu_cxx17__normal_iteratorIPS1_S3_EEDpOT_
FNDA:5,_ZNSt6vectorISt10shared_ptrIN7testing8internal15ExpectationBaseEESaIS4_EE17_M_realloc_insertIJRKS4_EEEvN9__gnu_cxx17__normal_iteratorIPS4_S6_EEDpOT_
FNF:4
FNH:4
DA:111,1
DA:114,1
DA:117,0
DA:119,0
DA:123,1
DA:125,1
DA:445,27
DA:455,27
DA:456,27
DA:457,27
DA:458,27
DA:459,27
DA:460,27
DA:468,27
DA:469,27
DA:475,27
DA:480,27
DA:481,27
DA:483,27
DA:485,27
DA:486,27
DA:504,0
DA:506,0
DA:507,0
DA:508,0
DA:510,0
DA:511,0
DA:512,0
DA:519,27
DA:520,27
DA:521,27
DA:522,27
DA:523,27
DA:524,27
LF:34
LH:25
end_of_record
TN:
SF:/usr/include/c++/13/cmath
FN:1152,1153,_ZSt5isinfd
FNDA:4,_ZSt5isinfd
FNF:1
FNH:1
DA:1152,4
DA:1153,4
LF:2
LH:2
end_of_record
TN:
SF:/usr/include/c++/13/ext/aligned_buffer.h
FN:104,107,_ZN9__gnu_cxx16__aligned_bufferIN7testing10OnceActionIFSt6vectorINSt7__cxx1112basic_stringIcSt11char_traitsIcESaIcEEESaIS9_EEmEE23IgnoreIncomingArgumentsINS1_8internal12ReturnActionISB_E4ImplISB_EEEEE7_M_addrEv
FN:104,107,_ZN9__gnu_cxx16__aligned_bufferIN7testing10OnceActionIFSt6vectorINSt7__cxx1112basic_stringIcSt11char_traitsIcESaIcEEESaIS9_EEmEEEE7_M_addrEv
FN:116,117,_ZN9__gnu_cxx16__aligned_bufferIN7testing10OnceActionIFSt6vectorINSt7__cxx1112basic_stringIcSt11char_traitsIcESaIcEEESaIS9_EEmEE23IgnoreIncomingArgumentsINS1_8internal12ReturnActionISB_E4ImplISB_EEEEE6_M_ptrEv
FN:116,117,_ZN9__gnu_cxx16__aligned_bufferIN7testing10OnceActionIFSt6vectorINSt7__cxx1112basic_stringIcSt11char_traitsIcESaIcEEESaIS9_EEmEEEE6_M_ptrEv
FN:64,65,_ZN9__gnu_cxx16__aligned_membufIN7testing11ExpectationEE7_M_addrEv
FN:68,69,_ZNK9__gnu_cxx16__aligned_membufIN7testing11ExpectationEE7_M_addrEv
FN:72,73,_ZN9__gnu_cxx16__aligned_membufIN7testing11ExpectationEE6_M_ptrEv
FN:76,77,_ZNK9__gnu_cxx16__aligned_membufIN7testing11ExpectationEE6_M_ptrEv
FNDA:3,_ZN9__gnu_cxx16__aligned_bufferIN7testing10OnceActionIFSt6vectorINSt7__cxx1112basic_stringIcSt11char_traitsIcESaIcEEESaIS9_EEmEE23IgnoreIncomingArgumentsINS1_8internal12ReturnActionISB_E4ImplISB_EEEEE7_M_addrEv
FNDA:3,_ZN9__gnu_cxx16__aligned_bufferIN7testing10OnceActionIFSt6vectorINSt7__cxx1112basic_stringIcSt11char_traitsIcESaIcEEESaIS9_EEmEEEE7_M_addrEv
FNDA:3,_ZN9__gnu_cxx16__aligned_bufferIN7testing10OnceActionIFSt6vectorINSt7__cxx1112basic_stringIcSt11char_traitsIcESaIcEEESaIS9_EEmEE23IgnoreIncomingArgumentsINS1_8internal12ReturnActionISB_E4ImplISB_EEEEE6_M_ptrEv
FNDA:3,_ZN9__gnu_cxx16__aligned_bufferIN7testing10OnceActionIFSt6vectorINSt7__cxx1112basic_stringIcSt11char_traitsIcESaIcEEESaIS9_EEmEEEE6_M_ptrEv
FNDA:0,_ZN9__gnu_cxx16__aligned_membufIN7testing11ExpectationEE7_M_addrEv
FNDA:0,_ZNK9__gnu_cxx16__aligned_membufIN7testing11ExpectationEE7_M_addrEv
FNDA:0,_ZN9__gnu_cxx16__aligned_membufIN7testing11ExpectationEE6_M_ptrEv
FNDA:0,_ZNK9__gnu_cxx16__aligned_membufIN7testing11ExpectationEE6_M_ptrEv
FNF:8
FNH:4
DA:64,0
DA:65,0
DA:68,0
DA:69,0
DA:72,0
DA:73,0
DA:76,0
DA:77,0
DA:104,6
DA:106,6
DA:116,6
DA:117,6
LF:12
LH:4
end_of_record
TN:
SF:/usr/include/c++/13/ext/alloc_traits.h
FNF:0
FNH:0
DA:98,35
DA:102,6
LF:2
LH:2
end_of_record
TN:
SF:/usr/include/c++/13/ext/atomicity.h
FNF:0
FNH:0
DA:52,30
DA:66,0
DA:71,0
DA:84,15
DA:85,15
DA:86,15
DA:92,15
DA:98,15
DA:99,15
DA:101,0
DA:108,15
DA:112,15
LF:12
LH:9
end_of_record
TN:
SF:/usr/include/c++/13/initializer_list
FN:69,69,_ZNKSt16initializer_listINSt7__cxx1112basic_stringIcSt11char_traitsIcESaIcEEEE4sizeEv
FN:73,73,_ZNKSt16initializer_listINSt7__cxx1112basic_stringIcSt11char_traitsIcESaIcEEEE5beginEv
FN:77,77,_ZNKSt16initializer_listINSt7__cxx1112basic_stringIcSt11char_traitsIcESaIcEEEE3endEv
FNDA:1,_ZNKSt16initializer_listINSt7__cxx1112basic_stringIcSt11char_traitsIcESaIcEEEE4sizeEv
FNDA:2,_ZNKSt16initializer_listINSt7__cxx1112basic_stringIcSt11char_traitsIcESaIcEEEE5beginEv
FNDA:1,_ZNKSt16initializer_listINSt7__cxx1112basic_stringIcSt11char_traitsIcESaIcEEEE3endEv
FNF:3
FNH:3
DA:69,1
DA:73,2
DA:77,1
LF:3
LH:3
end_of_record
TN:
SF:/usr/include/c++/13/new
FN:174,175,_ZnwmPv
FN:180,180,_ZdlPvS_
FNDA:1122,_ZnwmPv
FNDA:0,_ZdlPvS_
FNF:2
FNH:1
DA:174,1122
DA:175,1122
DA:180,0
LF:3
LH:2
end_of_record
TN:
SF:/usr/include/c++/13/tuple
FN:125,125,_ZNSt10_Head_baseILm1ESt14default_deleteIN4calc15InMemoryHistoryEELb1EE7_M_headERS4_
FN:125,125,_ZNSt10_Head_baseILm1ESt14default_deleteIN4calc16SimpleCalculatorEELb1EE7_M_headERS4_
FN:125,125,_ZNSt10_Head_baseILm1ESt14default_deleteINSt7__cxx1112basic_stringIcSt11char_traitsIcESaIcEEEELb1EE7_M_headERS8_
FN:125,125,_ZNSt10_Head_baseILm1ESt14default_deleteINSt7__cxx1118basic_stringstreamIcSt11char_traitsIcESaIcEEEELb1EE7_M_headERS8_
FN:1317,1319,_ZNSt5tupleIJPN4calc15InMemoryHistoryESt14default_deleteIS1_EEEC2ILb1ELb1EEEv
FN:1317,1319,_ZNSt5tupleIJPN4calc16SimpleCalculatorESt14default_deleteIS1_EEEC2ILb1ELb1EEEv
FN:1317,1319,_ZNSt5tupleIJPNSt7__cxx1112basic_stringIcSt11char_traitsIcESaIcEEESt14default_deleteIS5_EEEC2ILb1ELb1EEEv
FN:1345,1347,_ZNSt5tupleIJPKN7testing8internal11MatcherBaseIRKNSt7__cxx1112basic_stringIcSt11char_traitsIcESaIcEEEEEPKNS1_15AnythingMatcherEEEC2ISD_SG_Lb1EEEOT_OT0_
FN:1345,1347,_ZNSt5tupleIJPKN7testing8internal11MatcherBaseIRKS_IJRKNSt7__cxx1112basic_stringIcSt11char_traitsIcESaIcEEEEEEEPKNS1_15AnythingMatcherEEEC2ISG_SJ_Lb1EEEOT_OT0_
FN:1345,1347,_ZNSt5tupleIJPKN7testing8internal11MatcherBaseIRKS_IJmEEEEPKNS1_15AnythingMatcherEEEC2IS8_SB_Lb1EEEOT_OT0_
FN:1345,1347,_ZNSt5tupleIJPKN7testing8internal11MatcherBaseImEEPKNS1_9EqMatcherImEEEEC2IS5_S9_Lb1EEEOT_OT0_
FN:1787,1788,_ZSt12__get_helperILm0EPKN7testing8internal11MatcherBaseIRKNSt7__cxx1112basic_stringIcSt11char_traitsIcESaIcEEEEEJPKNS1_15AnythingMatcherEEERT0_RSt11_Tuple_implIXT_EJSH_DpT1_EE
FN:1787,1788,_ZSt12__get_helperILm0EPKN7testing8internal11MatcherBaseIRKSt5tupleIJRKNSt7__cxx1112basic_stringIcSt11char_traitsIcESaIcEEEEEEEJPKNS1_15AnythingMatcherEEERT0_RSt11_Tuple_implIXT_EJSL_DpT1_EE
FN:1787,1788,_ZSt12__get_helperILm0EPKN7testing8internal11MatcherBaseIRKSt5tupleIJmEEEEJPKNS1_15AnythingMatcherEEERT0_RSt11_Tuple_implIXT_EJSD_DpT1_EE
FN:1787,1788,_ZSt12__get_helperILm0EPKN7testing8internal11MatcherBaseImEEJPKNS1_9EqMatcherImEEEERT0_RSt11_Tuple_implIXT_EJSA_DpT1_EE
FN:1787,1788,_ZSt12__get_helperILm0EPN4calc15InMemoryHistoryEJSt14default_deleteIS1_EEERT0_RSt11_Tuple_implIXT_EJS5_DpT1_EE
FN:1787,1788,_ZSt12__get_helperILm0EPN4calc16SimpleCalculatorEJSt14default_deleteIS1_EEERT0_RSt11_Tuple_implIXT_EJS5_DpT1_EE
FN:1787,1788,_ZSt12__get_helperILm0EPNSt7__cxx1112basic_stringIcSt11char_traitsIcESaIcEEEJSt14default_deleteIS5_EEERT0_RSt11_Tuple_implIXT_EJS9_DpT1_EE
FN:1787,1788,_ZSt12__get_helperILm0EPNSt7__cxx1118basic_stringstreamIcSt11char_traitsIcESaIcEEEJSt14default_deleteIS5_EEERT0_RSt11_Tuple_implIXT_EJS9_DpT1_EE
FN:1787,1788,_ZSt12__get_helperILm0ERKNSt7__cxx1112basic_stringIcSt11char_traitsIcESaIcEEEJEERT0_RSt11_Tuple_implIXT_EJS8_DpT1_EE
FN:1787,1788,_ZSt12__get_helperILm0EmJEERT0_RSt11_Tuple_implIXT_EJS0_DpT1_EE
FN:1787,1788,_ZSt12__get_helperILm1ESt14default_deleteIN4calc15InMemoryHistoryEEJEERT0_RSt11_Tuple_implIXT_EJS4_DpT1_EE
FN:1787,1788,_ZSt12__get_helperILm1ESt14default_deleteIN4calc16SimpleCalculatorEEJEERT0_RSt11_Tuple_implIXT_EJS4_DpT1_EE
FN:1787,1788,_ZSt12__get_helperILm1ESt14default_deleteINSt7__cxx1112basic_stringIcSt11char_traitsIcESaIcEEEEJEERT0_RSt11_Tuple_implIXT_EJS8_DpT1_EE
FN:1787,1788,_ZSt12__get_helperILm1ESt14default_deleteINSt7__cxx1118basic_stringstreamIcSt11char_traitsIcESaIcEEEEJEERT0_RSt11_Tuple_implIXT_EJS8_DpT1_EE
FN:1792,1793,_ZSt12__get_helperILm0EN7testing7MatcherIRKNSt7__cxx1112basic_stringIcSt11char_traitsIcESaIcEEEEEJEERKT0_RKSt11_Tuple_implIXT_EJSB_DpT1_EE
FN:1792,1793,_ZSt12__get_helperILm0EN7testing7MatcherImEEJEERKT0_RKSt11_Tuple_implIXT_EJS3_DpT1_EE
FN:1792,1793,_ZSt12__get_helperILm0EPN4calc15InMemoryHistoryEJSt14default_deleteIS1_EEERKT0_RKSt11_Tuple_implIXT_EJS5_DpT1_EE
FN:1792,1793,_ZSt12__get_helperILm0EPN4calc16SimpleCalculatorEJSt14default_deleteIS1_EEERKT0_RKSt11_Tuple_implIXT_EJS5_DpT1_EE
FN:1792,1793,_ZSt12__get_helperILm0EPN7testing8internal11ThreadLocalIPNS0_8SequenceEE18ValueHolderFactoryEJSt14default_deleteIS6_EEERKT0_RKSt11_Tuple_implIXT_EJSA_DpT1_EE
FN:1792,1793,_ZSt12__get_helperILm0EPNSt7__cxx1112basic_stringIcSt11char_traitsIcESaIcEEEJSt14default_deleteIS5_EEERKT0_RKSt11_Tuple_implIXT_EJS9_DpT1_EE
FN:1792,1793,_ZSt12__get_helperILm0EPNSt7__cxx1118basic_stringstreamIcSt11char_traitsIcESaIcEEEJSt14default_deleteIS5_EEERKT0_RKSt11_Tuple_implIXT_EJS9_DpT1_EE
FN:1792,1793,_ZSt12__get_helperILm0ERKNSt7__cxx1112basic_stringIcSt11char_traitsIcESaIcEEEJEERKT0_RKSt11_Tuple_implIXT_EJS8_DpT1_EE
FN:1792,1793,_ZSt12__get_helperILm0EmJEERKT0_RKSt11_Tuple_implIXT_EJS0_DpT1_EE
FN:1803,1804,_ZSt3getILm0EJPN4calc15InMemoryHistoryESt14default_deleteIS1_EEERNSt13tuple_elementIXT_ESt5tupleIJDpT0_EEE4typeERS9_
FN:1803,1804,_ZSt3getILm0EJPN4calc16SimpleCalculatorESt14default_deleteIS1_EEERNSt13tuple_elementIXT_ESt5tupleIJDpT0_EEE4typeERS9_
FN:1803,1804,_ZSt3getILm0EJPNSt7__cxx1112basic_stringIcSt11char_traitsIcESaIcEEESt14default_deleteIS5_EEERNSt13tuple_elementIXT_ESt5tupleIJDpT0_EEE4typeERSD_
FN:1803,1804,_ZSt3getILm0EJPNSt7__cxx1118basic_stringstreamIcSt11char_traitsIcESaIcEEESt14default_deleteIS5_EEERNSt13tuple_elementIXT_ESt5tupleIJDpT0_EEE4typeERSD_
FN:1803,1804,_ZSt3getILm1EJPN4calc15InMemoryHistoryESt14default_deleteIS1_EEERNSt13tuple_elementIXT_ESt5tupleIJDpT0_EEE4typeERS9_
FN:1803,1804,_ZSt3getILm1EJPN4calc16SimpleCalculatorESt14default_deleteIS1_EEERNSt13tuple_elementIXT_ESt5tupleIJDpT0_EEE4typeERS9_
FN:1803,1804,_ZSt3getILm1EJPNSt7__cxx1112basic_stringIcSt11char_traitsIcESaIcEEESt14default_deleteIS5_EEERNSt13tuple_elementIXT_ESt5tupleIJDpT0_EEE4typeERSD_
FN:1803,1804,_ZSt3getILm1EJPNSt7__cxx1118basic_stringstreamIcSt11char_traitsIcESaIcEEESt14default_deleteIS5_EEERNSt13tuple_elementIXT_ESt5tupleIJDpT0_EEE4typeERSD_
FN:1809,1810,_ZSt3getILm0EJN7testing7MatcherIRKNSt7__cxx1112basic_stringIcSt11char_traitsIcESaIcEEEEEEERKNSt13tuple_elementIXT_ESt5tupleIJDpT0_EEE4typeERKSF_
FN:1809,1810,_ZSt3getILm0EJN7testing7MatcherImEEEERKNSt13tuple_elementIXT_ESt5tupleIJDpT0_EEE4typeERKS7_
FN:1809,1810,_ZSt3getILm0EJPN4calc15InMemoryHistoryESt14default_deleteIS1_EEERKNSt13tuple_elementIXT_ESt5tupleIJDpT0_EEE4typeERKS9_
FN:1809,1810,_ZSt3getILm0EJPN4calc16SimpleCalculatorESt14default_deleteIS1_EEERKNSt13tuple_elementIXT_ESt5tupleIJDpT0_EEE4typeERKS9_
FN:1809,1810,_ZSt3getILm0EJPN7testing8internal11ThreadLocalIPNS0_8SequenceEE18ValueHolderFactoryESt14default_deleteIS6_EEERKNSt13tuple_elementIXT_ESt5tupleIJDpT0_EEE4typeERKSE_
FN:1809,1810,_ZSt3getILm0EJPNSt7__cxx1112basic_stringIcSt11char_traitsIcESaIcEEESt14default_deleteIS5_EEERKNSt13tuple_elementIXT_ESt5tupleIJDpT0_EEE4typeERKSD_
FN:1809,1810,_ZSt3getILm0EJPNSt7__cxx1118basic_stringstreamIcSt11char_traitsIcESaIcEEESt14default_deleteIS5_EEERKNSt13tuple_elementIXT_ESt5tupleIJDpT0_EEE4typeERKSD_
FN:1809,1810,_ZSt3getILm0EJRKNSt7__cxx1112basic_stringIcSt11char_traitsIcESaIcEEEEERKNSt13tuple_elementIXT_ESt5tupleIJDpT0_EEE4typeERKSC_
FN:1809,1810,_ZSt3getILm0EJmEERKNSt13tuple_elementIXT_ESt5tupleIJDpT0_EEE4typeERKS4_
FN:1815,1819,_ZSt3getILm0EJPKN7testing8internal11MatcherBaseIRKNSt7__cxx1112basic_stringIcSt11char_traitsIcESaIcEEEEEPKNS1_15AnythingMatcherEEEONSt13tuple_elementIXT_ESt5tupleIJDpT0_EEE4typeEOSL_
FN:1815,1819,_ZSt3getILm0EJPKN7testing8internal11MatcherBaseIRKSt5tupleIJRKNSt7__cxx1112basic_stringIcSt11char_traitsIcESaIcEEEEEEEPKNS1_15AnythingMatcherEEEONSt13tuple_elementIXT_ES3_IJDpT0_EEE4typeEOSO_
FN:1815,1819,_ZSt3getILm0EJPKN7testing8internal11MatcherBaseIRKSt5tupleIJmEEEEPKNS1_15AnythingMatcherEEEONSt13tuple_elementIXT_ES3_IJDpT0_EEE4typeEOSG_
FN:1815,1819,_ZSt3getILm0EJPKN7testing8internal11MatcherBaseImEEPKNS1_9EqMatcherImEEEEONSt13tuple_elementIXT_ESt5tupleIJDpT0_EEE4typeEOSE_
FN:1815,1819,_ZSt3getILm0EJRKNSt7__cxx1112basic_stringIcSt11char_traitsIcESaIcEEEEEONSt13tuple_elementIXT_ESt5tupleIJDpT0_EEE4typeEOSC_
FN:1815,1819,_ZSt3getILm0EJmEEONSt13tuple_elementIXT_ESt5tupleIJDpT0_EEE4typeEOS4_
FN:190,191,_ZNSt10_Head_baseILm0EPN4calc15InMemoryHistoryELb0EEC2Ev
FN:190,191,_ZNSt10_Head_baseILm0EPN4calc16SimpleCalculatorELb0EEC2Ev
FN:190,191,_ZNSt10_Head_baseILm0EPNSt7__cxx1112basic_stringIcSt11char_traitsIcESaIcEEELb0EEC2Ev
FN:193,194,_ZNSt10_Head_baseILm0ERKNSt7__cxx1112basic_stringIcSt11char_traitsIcESaIcEEELb0EEC2ES7_
FN:196,196,_ZNSt10_Head_baseILm0EN7testing7MatcherIRKNSt7__cxx1112basic_stringIcSt11char_traitsIcESaIcEEEEELb0EEC2ERKSB_
FN:196,196,_ZNSt10_Head_baseILm0EN7testing7MatcherImEELb0EEC2ERKS3_
FN:200,201,_ZNSt10_Head_baseILm0EN7testing7MatcherIRKNSt7__cxx1112basic_stringIcSt11char_traitsIcESaIcEEEEELb0EEC2ISA_EEOT_
FN:200,201,_ZNSt10_Head_baseILm0EN7testing7MatcherImEELb0EEC2IS2_EEOT_
FN:200,201,_ZNSt10_Head_baseILm0EPKN7testing8internal11MatcherBaseIRKNSt7__cxx1112basic_stringIcSt11char_traitsIcESaIcEEEEELb0EEC2ISD_EEOT_
FN:200,201,_ZNSt10_Head_baseILm0EPKN7testing8internal11MatcherBaseIRKSt5tupleIJRKNSt7__cxx1112basic_stringIcSt11char_traitsIcESaIcEEEEEEELb0EEC2ISH_EEOT_
FN:200,201,_ZNSt10_Head_baseILm0EPKN7testing8internal11MatcherBaseIRKSt5tupleIJmEEEELb0EEC2IS9_EEOT_
FN:200,201,_ZNSt10_Head_baseILm0EPKN7testing8internal11MatcherBaseImEELb0EEC2IS5_EEOT_
FN:200,201,_ZNSt10_Head_baseILm0EmLb0EEC2ImEEOT_
FN:200,201,_ZNSt10_Head_baseILm1EPKN7testing8internal15AnythingMatcherELb0EEC2IS4_EEOT_
FN:200,201,_ZNSt10_Head_baseILm1EPKN7testing8internal9EqMatcherImEELb0EEC2IS5_EEOT_
FN:2001,2006,_ZSt10make_tupleIJN7testing7MatcherIRKNSt7__cxx1112basic_stringIcSt11char_traitsIcESaIcEEEEEEESt5tupleIJDpNSt25__strip_reference_wrapperINSt5decayIT_E4typeEE6__typeEEEDpOSE_
FN:2001,2006,_ZSt10make_tupleIJN7testing7MatcherImEEEESt5tupleIJDpNSt25__strip_reference_wrapperINSt5decayIT_E4typeEE6__typeEEEDpOS6_
FN:2001,2006,_ZSt10make_tupleIJPKN7testing8internal11MatcherBaseIRKNSt7__cxx1112basic_stringIcSt11char_traitsIcESaIcEEEEEPKNS1_15AnythingMatcherEEESt5tupleIJDpNSt25__strip_reference_wrapperINSt5decayIT_E4typeEE6__typeEEEDpOSK_
FN:2001,2006,_ZSt10make_tupleIJPKN7testing8internal11MatcherBaseIRKSt5tupleIJRKNSt7__cxx1112basic_stringIcSt11char_traitsIcESaIcEEEEEEEPKNS1_15AnythingMatcherEEES3_IJDpNSt25__strip_reference_wrapperINSt5decayIT_E4typeEE6__typeEEEDpOSN_
FN:2001,2006,_ZSt10make_tupleIJPKN7testing8internal11MatcherBaseIRKSt5tupleIJmEEEEPKNS1_15AnythingMatcherEEES3_IJDpNSt25__strip_reference_wrapperINSt5decayIT_E4typeEE6__typeEEEDpOSF_
FN:2001,2006,_ZSt10make_tupleIJPKN7testing8internal11MatcherBaseImEEPKNS1_9EqMatcherImEEEESt5tupleIJDpNSt25__strip_reference_wrapperINSt5decayIT_E4typeEE6__typeEEEDpOSD_
FN:234,234,_ZNSt10_Head_baseILm0EPKN7testing8internal11MatcherBaseIRKNSt7__cxx1112basic_stringIcSt11char_traitsIcESaIcEEEEELb0EE7_M_headERSE_
FN:234,234,_ZNSt10_Head_baseILm0EPKN7testing8internal11MatcherBaseIRKSt5tupleIJRKNSt7__cxx1112basic_stringIcSt11char_traitsIcESaIcEEEEEEELb0EE7_M_headERSI_
FN:234,234,_ZNSt10_Head_baseILm0EPKN7testing8internal11MatcherBaseIRKSt5tupleIJmEEEELb0EE7_M_headERSA_
FN:234,234,_ZNSt10_Head_baseILm0EPKN7testing8internal11MatcherBaseImEELb0EE7_M_headERS6_
FN:234,234,_ZNSt10_Head_baseILm0EPN4calc15InMemoryHistoryELb0EE7_M_headERS3_
FN:234,234,_ZNSt10_Head_baseILm0EPN4calc16SimpleCalculatorELb0EE7_M_headERS3_
FN:234,234,_ZNSt10_Head_baseILm0EPNSt7__cxx1112basic_stringIcSt11char_traitsIcESaIcEEELb0EE7_M_headERS7_
FN:234,234,_ZNSt10_Head_baseILm0EPNSt7__cxx1118basic_stringstreamIcSt11char_traitsIcESaIcEEELb0EE7_M_headERS7_
FN:234,234,_ZNSt10_Head_baseILm0ERKNSt7__cxx1112basic_stringIcSt11char_traitsIcESaIcEEELb0EE7_M_headERS8_
FN:234,234,_ZNSt10_Head_baseILm0EmLb0EE7_M_headERS0_
FN:237,237,_ZNSt10_Head_baseILm0EN7testing7MatcherIRKNSt7__cxx1112basic_stringIcSt11char_traitsIcESaIcEEEEELb0EE7_M_headERKSB_
FN:237,237,_ZNSt10_Head_baseILm0EN7testing7MatcherImEELb0EE7_M_headERKS3_
FN:237,237,_ZNSt10_Head_baseILm0EPN4calc15InMemoryHistoryELb0EE7_M_headERKS3_
FN:237,237,_ZNSt10_Head_baseILm0EPN4calc16SimpleCalculatorELb0EE7_M_headERKS3_
FN:237,237,_ZNSt10_Head_baseILm0EPN7testing8internal11ThreadLocalIPNS0_8SequenceEE18ValueHolderFactoryELb0EE7_M_headERKS8_
FN:237,237,_ZNSt10_Head_baseILm0EPNSt7__cxx1112basic_stringIcSt11char_traitsIcESaIcEEELb0EE7_M_headERKS7_
FN:237,237,_ZNSt10_Head_baseILm0EPNSt7__cxx1118basic_stringstreamIcSt11char_traitsIcESaIcEEELb0EE7_M_headERKS7_
FN:237,237,_ZNSt10_Head_baseILm0ERKNSt7__cxx1112basic_stringIcSt11char_traitsIcESaIcEEELb0EE7_M_headERKS8_
FN:237,237,_ZNSt10_Head_baseILm0EmLb0EE7_M_headERKS0_
FN:269,269,_ZNSt11_Tuple_implILm0EJPKN7testing8internal11MatcherBaseIRKNSt7__cxx1112basic_stringIcSt11char_traitsIcESaIcEEEEEPKNS1_15AnythingMatcherEEE7_M_headERSH_
FN:269,269,_ZNSt11_Tuple_implILm0EJPKN7testing8internal11MatcherBaseIRKSt5tupleIJRKNSt7__cxx1112basic_stringIcSt11char_traitsIcESaIcEEEEEEEPKNS1_15AnythingMatcherEEE7_M_headERSL_
FN:269,269,_ZNSt11_Tuple_implILm0EJPKN7testing8internal11MatcherBaseIRKSt5tupleIJmEEEEPKNS1_15AnythingMatcherEEE7_M_headERSD_
FN:269,269,_ZNSt11_Tuple_implILm0EJPKN7testing8internal11MatcherBaseImEEPKNS1_9EqMatcherImEEEE7_M_headERSA_
FN:269,269,_ZNSt11_Tuple_implILm0EJPN4calc15InMemoryHistoryESt14default_deleteIS1_EEE7_M_headERS5_
FN:269,269,_ZNSt11_Tuple_implILm0EJPN4calc16SimpleCalculatorESt14default_deleteIS1_EEE7_M_headERS5_
FN:269,269,_ZNSt11_Tuple_implILm0EJPNSt7__cxx1112basic_stringIcSt11char_traitsIcESaIcEEESt14default_deleteIS5_EEE7_M_headERS9_
FN:269,269,_ZNSt11_Tuple_implILm0EJPNSt7__cxx1118basic_stringstreamIcSt11char_traitsIcESaIcEEESt14default_deleteIS5_EEE7_M_headERS9_
FN:272,272,_ZNSt11_Tuple_implILm0EJPN4calc15InMemoryHistoryESt14default_deleteIS1_EEE7_M_headERKS5_
FN:272,272,_ZNSt11_Tuple_implILm0EJPN4calc16SimpleCalculatorESt14default_deleteIS1_EEE7_M_headERKS5_
FN:272,272,_ZNSt11_Tuple_implILm0EJPN7testing8internal11ThreadLocalIPNS0_8SequenceEE18ValueHolderFactoryESt14default_deleteIS6_EEE7_M_headERKSA_
FN:272,272,_ZNSt11_Tuple_implILm0EJPNSt7__cxx1112basic_stringIcSt11char_traitsIcESaIcEEESt14default_deleteIS5_EEE7_M_headERKS9_
FN:272,272,_ZNSt11_Tuple_implILm0EJPNSt7__cxx1118basic_stringstreamIcSt11char_traitsIcESaIcEEESt14default_deleteIS5_EEE7_M_headERKS9_
FN:280,281,_ZNSt11_Tuple_implILm0EJPN4calc15InMemoryHistoryESt14default_deleteIS1_EEEC2Ev
FN:280,281,_ZNSt11_Tuple_implILm0EJPN4calc16SimpleCalculatorESt14default_deleteIS1_EEEC2Ev
FN:280,281,_ZNSt11_Tuple_implILm0EJPNSt7__cxx1112basic_stringIcSt11char_traitsIcESaIcEEESt14default_deleteIS5_EEEC2Ev
FN:291,294,_ZNSt11_Tuple_implILm0EJPKN7testing8internal11MatcherBaseIRKNSt7__cxx1112basic_stringIcSt11char_traitsIcESaIcEEEEEPKNS1_15AnythingMatcherEEEC2ISD_JSG_EvEEOT_DpOT0_
FN:291,294,_ZNSt11_Tuple_implILm0EJPKN7testing8internal11MatcherBaseIRKSt5tupleIJRKNSt7__cxx1112basic_stringIcSt11char_traitsIcESaIcEEEEEEEPKNS1_15AnythingMatcherEEEC2ISH_JSK_EvEEOT_DpOT0_
FN:291,294,_ZNSt11_Tuple_implILm0EJPKN7testing8internal11MatcherBaseIRKSt5tupleIJmEEEEPKNS1_15AnythingMatcherEEEC2IS9_JSC_EvEEOT_DpOT0_
FN:291,294,_ZNSt11_Tuple_implILm0EJPKN7testing8internal11MatcherBaseImEEPKNS1_9EqMatcherImEEEEC2IS5_JS9_EvEEOT_DpOT0_
FN:497,497,_ZNSt11_Tuple_implILm0EJRKNSt7__cxx1112basic_stringIcSt11char_traitsIcESaIcEEEEE7_M_headERS8_
FN:497,497,_ZNSt11_Tuple_implILm0EJmEE7_M_headERS0_
FN:497,497,_ZNSt11_Tuple_implILm1EJSt14default_deleteIN4calc15InMemoryHistoryEEEE7_M_headERS4_
FN:497,497,_ZNSt11_Tuple_implILm1EJSt14default_deleteIN4calc16SimpleCalculatorEEEE7_M_headERS4_
FN:497,497,_ZNSt11_Tuple_implILm1EJSt14default_deleteINSt7__cxx1112basic_stringIcSt11char_traitsIcESaIcEEEEEE7_M_headERS8_
FN:497,497,_ZNSt11_Tuple_implILm1EJSt14default_deleteINSt7__cxx1118basic_stringstreamIcSt11char_traitsIcESaIcEEEEEE7_M_headERS8_
FN:500,500,_ZNSt11_Tuple_implILm0EJN7testing7MatcherIRKNSt7__cxx1112basic_stringIcSt11char_traitsIcESaIcEEEEEEE7_M_headERKSB_
FN:500,500,_ZNSt11_Tuple_implILm0EJN7testing7MatcherImEEEE7_M_headERKS3_
FN:500,500,_ZNSt11_Tuple_implILm0EJRKNSt7__cxx1112basic_stringIcSt11char_traitsIcESaIcEEEEE7_M_headERKS8_
FN:500,500,_ZNSt11_Tuple_implILm0EJmEE7_M_headERKS0_
FN:503,504,_ZNSt11_Tuple_implILm1EJSt14default_deleteIN4calc15InMemoryHistoryEEEEC2Ev
FN:503,504,_ZNSt11_Tuple_implILm1EJSt14default_deleteIN4calc16SimpleCalculatorEEEEC2Ev
FN:503,504,_ZNSt11_Tuple_implILm1EJSt14default_deleteINSt7__cxx1112basic_stringIcSt11char_traitsIcESaIcEEEEEEC2Ev
FN:507,509,_ZNSt11_Tuple_implILm0EJRKNSt7__cxx1112basic_stringIcSt11char_traitsIcESaIcEEEEEC2ES7_
FN:513,515,_ZNSt11_Tuple_implILm0EJN7testing7MatcherIRKNSt7__cxx1112basic_stringIcSt11char_traitsIcESaIcEEEEEEEC2ISA_EEOT_
FN:513,515,_ZNSt11_Tuple_implILm0EJN7testing7MatcherImEEEEC2IS2_EEOT_
FN:513,515,_ZNSt11_Tuple_implILm0EJmEEC2ImEEOT_
FN:513,515,_ZNSt11_Tuple_implILm1EJPKN7testing8internal15AnythingMatcherEEEC2IS4_EEOT_
FN:513,515,_ZNSt11_Tuple_implILm1EJPKN7testing8internal9EqMatcherImEEEEC2IS5_EEOT_
FN:517,517,_ZNSt11_Tuple_implILm0EJN7testing7MatcherIRKNSt7__cxx1112basic_stringIcSt11char_traitsIcESaIcEEEEEEEC2ERKSB_
FN:517,517,_ZNSt11_Tuple_implILm0EJN7testing7MatcherImEEEEC2ERKS3_
FN:527,530,_ZNSt11_Tuple_implILm0EJRKNSt7__cxx1112basic_stringIcSt11char_traitsIcESaIcEEEEEC2EOS8_
FN:527,530,_ZNSt11_Tuple_implILm0EJmEEC2EOS0_
FN:81,82,_ZNSt10_Head_baseILm1ESt14default_deleteIN4calc15InMemoryHistoryEELb1EEC2Ev
FN:81,82,_ZNSt10_Head_baseILm1ESt14default_deleteIN4calc16SimpleCalculatorEELb1EEC2Ev
FN:81,82,_ZNSt10_Head_baseILm1ESt14default_deleteINSt7__cxx1112basic_stringIcSt11char_traitsIcESaIcEEEELb1EEC2Ev
FN:874,876,_ZNSt5tupleIJRKNSt7__cxx1112basic_stringIcSt11char_traitsIcESaIcEEEEEC2ILb1ELb1EEES7_
FN:889,891,_ZNSt5tupleIJN7testing7MatcherIRKNSt7__cxx1112basic_stringIcSt11char_traitsIcESaIcEEEEEEEC2IJSA_ELb1ELb1EEEDpOT_
FN:889,891,_ZNSt5tupleIJN7testing7MatcherImEEEEC2IJS2_ELb1ELb1EEEDpOT_
FN:889,891,_ZNSt5tupleIJmEEC2IJmELb1ELb1EEEDpOT_
FN:901,901,_ZNSt5tupleIJN7testing7MatcherIRKNSt7__cxx1112basic_stringIcSt11char_traitsIcESaIcEEEEEEEC2ERKSB_
FN:901,901,_ZNSt5tupleIJN7testing7MatcherImEEEEC2ERKS3_
FN:903,903,_ZNSt5tupleIJRKNSt7__cxx1112basic_stringIcSt11char_traitsIcESaIcEEEEEC2EOS8_
FN:903,903,_ZNSt5tupleIJmEEC2EOS0_
FNDA:33,_ZNSt10_Head_baseILm1ESt14default_deleteIN4calc15InMemoryHistoryEELb1EE7_M_headERS4_
FNDA:33,_ZNSt10_Head_baseILm1ESt14default_deleteIN4calc16SimpleCalculatorEELb1EE7_M_headERS4_
FNDA:0,_ZNSt10_Head_baseILm1ESt14default_deleteINSt7__cxx1112basic_stringIcSt11char_traitsIcESaIcEEEELb1EE7_M_headERS8_
FNDA:1312,_ZNSt10_Head_baseILm1ESt14default_deleteINSt7__cxx1118basic_stringstreamIcSt11char_traitsIcESaIcEEEELb1EE7_M_headERS8_
FNDA:22,_ZNSt5tupleIJPN4calc15InMemoryHistoryESt14default_deleteIS1_EEEC2ILb1ELb1EEEv
FNDA:22,_ZNSt5tupleIJPN4calc16SimpleCalculatorESt14default_deleteIS1_EEEC2ILb1ELb1EEEv
FNDA:22,_ZNSt5tupleIJPNSt7__cxx1112basic_stringIcSt11char_traitsIcESaIcEEESt14default_deleteIS5_EEEC2ILb1ELb1EEEv
FNDA:0,_ZNSt5tupleIJPKN7testing8internal11MatcherBaseIRKNSt7__cxx1112basic_stringIcSt11char_traitsIcESaIcEEEEEPKNS1_15AnythingMatcherEEEC2ISD_SG_Lb1EEEOT_OT0_
FNDA:0,_ZNSt5tupleIJPKN7testing8internal11MatcherBaseIRKS_IJRKNSt7__cxx1112basic_stringIcSt11char_traitsIcESaIcEEEEEEEPKNS1_15AnythingMatcherEEEC2ISG_SJ_Lb1EEEOT_OT0_
FNDA:0,_ZNSt5tupleIJPKN7testing8internal11MatcherBaseIRKS_IJmEEEEPKNS1_15AnythingMatcherEEEC2IS8_SB_Lb1EEEOT_OT0_
FNDA:0,_ZNSt5tupleIJPKN7testing8internal11MatcherBaseImEEPKNS1_9EqMatcherImEEEEC2IS5_S9_Lb1EEEOT_OT0_
FNDA:0,_ZSt12__get_helperILm0EPKN7testing8internal11MatcherBaseIRKNSt7__cxx1112basic_stringIcSt11char_traitsIcESaIcEEEEEJPKNS1_15AnythingMatcherEEERT0_RSt11_Tuple_implIXT_EJSH_DpT1_EE
FNDA:0,_ZSt12__get_helperILm0EPKN7testing8internal11MatcherBaseIRKSt5tupleIJRKNSt7__cxx1112basic_stringIcSt11char_traitsIcESaIcEEEEEEEJPKNS1_15AnythingMatcherEEERT0_RSt11_Tuple_implIXT_EJSL_DpT1_EE
FNDA:0,_ZSt12__get_helperILm0EPKN7testing8internal11MatcherBaseIRKSt5tupleIJmEEEEJPKNS1_15AnythingMatcherEEERT0_RSt11_Tuple_implIXT_EJSD_DpT1_EE
FNDA:0,_ZSt12__get_helperILm0EPKN7testing8internal11MatcherBaseImEEJPKNS1_9EqMatcherImEEEERT0_RSt11_Tuple_implIXT_EJSA_DpT1_EE
FNDA:99,_ZSt12__get_helperILm0EPN4calc15InMemoryHistoryEJSt14default_deleteIS1_EEERT0_RSt11_Tuple_implIXT_EJS5_DpT1_EE
FNDA:99,_ZSt12__get_helperILm0EPN4calc16SimpleCalculatorEJSt14default_deleteIS1_EEERT0_RSt11_Tuple_implIXT_EJS5_DpT1_EE
FNDA:30,_ZSt12__get_helperILm0EPNSt7__cxx1112basic_stringIcSt11char_traitsIcESaIcEEEJSt14default_deleteIS5_EEERT0_RSt11_Tuple_implIXT_EJS9_DpT1_EE
FNDA:2624,_ZSt12__get_helperILm0EPNSt7__cxx1118basic_stringstreamIcSt11char_traitsIcESaIcEEEJSt14default_deleteIS5_EEERT0_RSt11_Tuple_implIXT_EJS9_DpT1_EE
FNDA:0,_ZSt12__get_helperILm0ERKNSt7__cxx1112basic_stringIcSt11char_traitsIcESaIcEEEJEERT0_RSt11_Tuple_implIXT_EJS8_DpT1_EE
FNDA:1,_ZSt12__get_helperILm0EmJEERT0_RSt11_Tuple_implIXT_EJS0_DpT1_EE
FNDA:33,_ZSt12__get_helperILm1ESt14default_deleteIN4calc15InMemoryHistoryEEJEERT0_RSt11_Tuple_implIXT_EJS4_DpT1_EE
FNDA:33,_ZSt12__get_helperILm1ESt14default_deleteIN4calc16SimpleCalculatorEEJEERT0_RSt11_Tuple_implIXT_EJS4_DpT1_EE
FNDA:0,_ZSt12__get_helperILm1ESt14default_deleteINSt7__cxx1112basic_stringIcSt11char_traitsIcESaIcEEEEJEERT0_RSt11_Tuple_implIXT_EJS8_DpT1_EE
FNDA:1312,_ZSt12__get_helperILm1ESt14default_deleteINSt7__cxx1118basic_stringstreamIcSt11char_traitsIcESaIcEEEEJEERT0_RSt11_Tuple_implIXT_EJS8_DpT1_EE
FNDA:5,_ZSt12__get_helperILm0EN7testing7MatcherIRKNSt7__cxx1112basic_stringIcSt11char_traitsIcESaIcEEEEEJEERKT0_RKSt11_Tuple_implIXT_EJSB_DpT1_EE
FNDA:1,_ZSt12__get_helperILm0EN7testing7MatcherImEEJEERKT0_RKSt11_Tuple_implIXT_EJS3_DpT1_EE
FNDA:11,_ZSt12__get_helperILm0EPN4calc15InMemoryHistoryEJSt14default_deleteIS1_EEERKT0_RKSt11_Tuple_implIXT_EJS5_DpT1_EE
FNDA:11,_ZSt12__get_helperILm0EPN4calc16SimpleCalculatorEJSt14default_deleteIS1_EEERKT0_RKSt11_Tuple_implIXT_EJS5_DpT1_EE
FNDA:2,_ZSt12__get_helperILm0EPN7testing8internal11ThreadLocalIPNS0_8SequenceEE18ValueHolderFactoryEJSt14default_deleteIS6_EEERKT0_RKSt11_Tuple_implIXT_EJSA_DpT1_EE
FNDA:0,_ZSt12__get_helperILm0EPNSt7__cxx1112basic_stringIcSt11char_traitsIcESaIcEEEJSt14default_deleteIS5_EEERKT0_RKSt11_Tuple_implIXT_EJS9_DpT1_EE
FNDA:11718,_ZSt12__get_helperILm0EPNSt7__cxx1118basic_stringstreamIcSt11char_traitsIcESaIcEEEJSt14default_deleteIS5_EEERKT0_RKSt11_Tuple_implIXT_EJS9_DpT1_EE
FNDA:5,_ZSt12__get_helperILm0ERKNSt7__cxx1112basic_stringIcSt11char_traitsIcESaIcEEEJEERKT0_RKSt11_Tuple_implIXT_EJS8_DpT1_EE
FNDA:1,_ZSt12__get_helperILm0EmJEERKT0_RKSt11_Tuple_implIXT_EJS0_DpT1_EE
FNDA:99,_ZSt3getILm0EJPN4calc15InMemoryHistoryESt14default_deleteIS1_EEERNSt13tuple_elementIXT_ESt5tupleIJDpT0_EEE4typeERS9_
FNDA:99,_ZSt3getILm0EJPN4calc16SimpleCalculatorESt14default_deleteIS1_EEERNSt13tuple_elementIXT_ESt5tupleIJDpT0_EEE4typeERS9_
FNDA:30,_ZSt3getILm0EJPNSt7__cxx1112basic_stringIcSt11char_traitsIcESaIcEEESt14default_deleteIS5_EEERNSt13tuple_elementIXT_ESt5tupleIJDpT0_EEE4typeERSD_
FNDA:2624,_ZSt3getILm0EJPNSt7__cxx1118basic_stringstreamIcSt11char_traitsIcESaIcEEESt14default_deleteIS5_EEERNSt13tuple_elementIXT_ESt5tupleIJDpT0_EEE4typeERSD_
FNDA:33,_ZSt3getILm1EJPN4calc15InMemoryHistoryESt14default_deleteIS1_EEERNSt13tuple_elementIXT_ESt5tupleIJDpT0_EEE4typeERS9_
FNDA:33,_ZSt3getILm1EJPN4calc16SimpleCalculatorESt14default_deleteIS1_EEERNSt13tuple_elementIXT_ESt5tupleIJDpT0_EEE4typeERS9_
FNDA:0,_ZSt3getILm1EJPNSt7__cxx1112basic_stringIcSt11char_traitsIcESaIcEEESt14default_deleteIS5_EEERNSt13tuple_elementIXT_ESt5tupleIJDpT0_EEE4typeERSD_
FNDA:1312,_ZSt3getILm1EJPNSt7__cxx1118basic_stringstreamIcSt11char_traitsIcESaIcEEESt14default_deleteIS5_EEERNSt13tuple_elementIXT_ESt5tupleIJDpT0_EEE4typeERSD_
FNDA:5,_ZSt3getILm0EJN7testing7MatcherIRKNSt7__cxx1112basic_stringIcSt11char_traitsIcESaIcEEEEEEERKNSt13tuple_elementIXT_ESt5tupleIJDpT0_EEE4typeERKSF_
FNDA:1,_ZSt3getILm0EJN7testing7MatcherImEEEERKNSt13tuple_elementIXT_ESt5tupleIJDpT0_EEE4typeERKS7_
FNDA:11,_ZSt3getILm0EJPN4calc15InMemoryHistoryESt14default_deleteIS1_EEERKNSt13tuple_elementIXT_ESt5tupleIJDpT0_EEE4typeERKS9_
FNDA:11,_ZSt3getILm0EJPN4calc16SimpleCalculatorESt14default_deleteIS1_EEERKNSt13tuple_elementIXT_ESt5tupleIJDpT0_EEE4typeERKS9_
FNDA:2,_ZSt3getILm0EJPN7testing8internal11ThreadLocalIPNS0_8SequenceEE18ValueHolderFactoryESt14default_deleteIS6_EEERKNSt13tuple_elementIXT_ESt5tupleIJDpT0_EEE4typeERKSE_
FNDA:0,_ZSt3getILm0EJPNSt7__cxx1112basic_stringIcSt11char_traitsIcESaIcEEESt14default_deleteIS5_EEERKNSt13tuple_elementIXT_ESt5tupleIJDpT0_EEE4typeERKSD_
FNDA:11718,_ZSt3getILm0EJPNSt7__cxx1118basic_stringstreamIcSt11char_traitsIcESaIcEEESt14default_deleteIS5_EEERKNSt13tuple_elementIXT_ESt5tupleIJDpT0_EEE4typeERKSD_
FNDA:5,_ZSt3getILm0EJRKNSt7__cxx1112basic_stringIcSt11char_traitsIcESaIcEEEEERKNSt13tuple_elementIXT_ESt5tupleIJDpT0_EEE4typeERKSC_
FNDA:1,_ZSt3getILm0EJmEERKNSt13tuple_elementIXT_ESt5tupleIJDpT0_EEE4typeERKS4_
FNDA:0,_ZSt3getILm0EJPKN7testing8internal11MatcherBaseIRKNSt7__cxx1112basic_stringIcSt11char_traitsIcESaIcEEEEEPKNS1_15AnythingMatcherEEEONSt13tuple_elementIXT_ESt5tupleIJDpT0_EEE4typeEOSL_
FNDA:0,_ZSt3getILm0EJPKN7testing8internal11MatcherBaseIRKSt5tupleIJRKNSt7__cxx1112basic_stringIcSt11char_traitsIcESaIcEEEEEEEPKNS1_15AnythingMatcherEEEONSt13tuple_elementIXT_ES3_IJDpT0_EEE4typeEOSO_
FNDA:0,_ZSt3getILm0EJPKN7testing8internal11MatcherBaseIRKSt5tupleIJmEEEEPKNS1_15AnythingMatcherEEEONSt13tuple_elementIXT_ES3_IJDpT0_EEE4typeEOSG_
FNDA:0,_ZSt3getILm0EJPKN7testing8internal11MatcherBaseImEEPKNS1_9EqMatcherImEEEEONSt13tuple_elementIXT_ESt5tupleIJDpT0_EEE4typeEOSE_
FNDA:0,_ZSt3getILm0EJRKNSt7__cxx1112basic_stringIcSt11char_traitsIcESaIcEEEEEONSt13tuple_elementIXT_ESt5tupleIJDpT0_EEE4typeEOSC_
FNDA:1,_ZSt3getILm0EJmEEONSt13tuple_elementIXT_ESt5tupleIJDpT0_EEE4typeEOS4_
FNDA:22,_ZNSt10_Head_baseILm0EPN4calc15InMemoryHistoryELb0EEC2Ev
FNDA:22,_ZNSt10_Head_baseILm0EPN4calc16SimpleCalculatorELb0EEC2Ev
FNDA:22,_ZNSt10_Head_baseILm0EPNSt7__cxx1112basic_stringIcSt11char_traitsIcESaIcEEELb0EEC2Ev
FNDA:5,_ZNSt10_Head_baseILm0ERKNSt7__cxx1112basic_stringIcSt11char_traitsIcESaIcEEELb0EEC2ES7_
FNDA:10,_ZNSt10_Head_baseILm0EN7testing7MatcherIRKNSt7__cxx1112basic_stringIcSt11char_traitsIcESaIcEEEEELb0EEC2ERKSB_
FNDA:2,_ZNSt10_Head_baseILm0EN7testing7MatcherImEELb0EEC2ERKS3_
FNDA:5,_ZNSt10_Head_baseILm0EN7testing7MatcherIRKNSt7__cxx1112basic_stringIcSt11char_traitsIcESaIcEEEEELb0EEC2ISA_EEOT_
FNDA:1,_ZNSt10_Head_baseILm0EN7testing7MatcherImEELb0EEC2IS2_EEOT_
FNDA:0,_ZNSt10_Head_baseILm0EPKN7testing8internal11MatcherBaseIRKNSt7__cxx1112basic_stringIcSt11char_traitsIcESaIcEEEEELb0EEC2ISD_EEOT_
FNDA:0,_ZNSt10_Head_baseILm0EPKN7testing8internal11MatcherBaseIRKSt5tupleIJRKNSt7__cxx1112basic_stringIcSt11char_traitsIcESaIcEEEEEEELb0EEC2ISH_EEOT_
FNDA:0,_ZNSt10_Head_baseILm0EPKN7testing8internal11MatcherBaseIRKSt5tupleIJmEEEELb0EEC2IS9_EEOT_
FNDA:0,_ZNSt10_Head_baseILm0EPKN7testing8internal11MatcherBaseImEELb0EEC2IS5_EEOT_
FNDA:1,_ZNSt10_Head_baseILm0EmLb0EEC2ImEEOT_
FNDA:0,_ZNSt10_Head_baseILm1EPKN7testing8internal15AnythingMatcherELb0EEC2IS4_EEOT_
FNDA:0,_ZNSt10_Head_baseILm1EPKN7testing8internal9EqMatcherImEELb0EEC2IS5_EEOT_
FNDA:5,_ZSt10make_tupleIJN7testing7MatcherIRKNSt7__cxx1112basic_stringIcSt11char_traitsIcESaIcEEEEEEESt5tupleIJDpNSt25__strip_reference_wrapperINSt5decayIT_E4typeEE6__typeEEEDpOSE_
FNDA:1,_ZSt10make_tupleIJN7testing7MatcherImEEEESt5tupleIJDpNSt25__strip_reference_wrapperINSt5decayIT_E4typeEE6__typeEEEDpOS6_
FNDA:0,_ZSt10make_tupleIJPKN7testing8internal11MatcherBaseIRKNSt7__cxx1112basic_stringIcSt11char_traitsIcESaIcEEEEEPKNS1_15AnythingMatcherEEESt5tupleIJDpNSt25__strip_reference_wrapperINSt5decayIT_E4typeEE6__typeEEEDpOSK_
FNDA:0,_ZSt10make_tupleIJPKN7testing8internal11MatcherBaseIRKSt5tupleIJRKNSt7__cxx1112basic_stringIcSt11char_traitsIcESaIcEEEEEEEPKNS1_15AnythingMatcherEEES3_IJDpNSt25__strip_reference_wrapperINSt5decayIT_E4typeEE6__typeEEEDpOSN_
FNDA:0,_ZSt10make_tupleIJPKN7testing8internal11MatcherBaseIRKSt5tupleIJmEEEEPKNS1_15AnythingMatcherEEES3_IJDpNSt25__strip_reference_wrapperINSt5decayIT_E4typeEE6__typeEEEDpOSF_
FNDA:0,_ZSt10make_tupleIJPKN7testing8internal11MatcherBaseImEEPKNS1_9EqMatcherImEEEESt5tupleIJDpNSt25__strip_reference_wrapperINSt5decayIT_E4typeEE6__typeEEEDpOSD_
FNDA:0,_ZNSt10_Head_baseILm0EPKN7testing8internal11MatcherBaseIRKNSt7__cxx1112basic_stringIcSt11char_traitsIcESaIcEEEEELb0EE7_M_headERSE_
FNDA:0,_ZNSt10_Head_baseILm0EPKN7testing8internal11MatcherBaseIRKSt5tupleIJRKNSt7__cxx1112basic_stringIcSt11char_traitsIcESaIcEEEEEEELb0EE7_M_headERSI_
FNDA:0,_ZNSt10_Head_baseILm0EPKN7testing8internal11MatcherBaseIRKSt5tupleIJmEEEELb0EE7_M_headERSA_
FNDA:0,_ZNSt10_Head_baseILm0EPKN7testing8internal11MatcherBaseImEELb0EE7_M_headERS6_
FNDA:99,_ZNSt10_Head_baseILm0EPN4calc15InMemoryHistoryELb0EE7_M_headERS3_
FNDA:99,_ZNSt10_Head_baseILm0EPN4calc16SimpleCalculatorELb0EE7_M_headERS3_
FNDA:30,_ZNSt10_Head_baseILm0EPNSt7__cxx1112basic_stringIcSt11char_traitsIcESaIcEEELb0EE7_M_headERS7_
FNDA:2624,_ZNSt10_Head_baseILm0EPNSt7__cxx1118basic_stringstreamIcSt11char_traitsIcESaIcEEELb0EE7_M_headERS7_
FNDA:0,_ZNSt10_Head_baseILm0ERKNSt7__cxx1112basic_stringIcSt11char_traitsIcESaIcEEELb0EE7_M_headERS8_
FNDA:1,_ZNSt10_Head_baseILm0EmLb0EE7_M_headERS0_
FNDA:5,_ZNSt10_Head_baseILm0EN7testing7MatcherIRKNSt7__cxx1112basic_stringIcSt11char_traitsIcESaIcEEEEELb0EE7_M_headERKSB_
FNDA:1,_ZNSt10_Head_baseILm0EN7testing7MatcherImEELb0EE7_M_headERKS3_
FNDA:11,_ZNSt10_Head_baseILm0EPN4calc15InMemoryHistoryELb0EE7_M_headERKS3_
FNDA:11,_ZNSt10_Head_baseILm0EPN4calc16SimpleCalculatorELb0EE7_M_headERKS3_
FNDA:2,_ZNSt10_Head_baseILm0EPN7testing8internal11ThreadLocalIPNS0_8SequenceEE18ValueHolderFactoryELb0EE7_M_headERKS8_
FNDA:0,_ZNSt10_Head_baseILm0EPNSt7__cxx1112basic_stringIcSt11char_traitsIcESaIcEEELb0EE7_M_headERKS7_
FNDA:11718,_ZNSt10_Head_baseILm0EPNSt7__cxx1118basic_stringstreamIcSt11char_traitsIcESaIcEEELb0EE7_M_headERKS7_
FNDA:5,_ZNSt10_Head_baseILm0ERKNSt7__cxx1112basic_stringIcSt11char_traitsIcESaIcEEELb0EE7_M_headERKS8_
FNDA:1,_ZNSt10_Head_baseILm0EmLb0EE7_M_headERKS0_
FNDA:0,_ZNSt11_Tuple_implILm0EJPKN7testing8internal11MatcherBaseIRKNSt7__cxx1112basic_stringIcSt11char_traitsIcESaIcEEEEEPKNS1_15AnythingMatcherEEE7_M_headERSH_
FNDA:0,_ZNSt11_Tuple_implILm0EJPKN7testing8internal11MatcherBaseIRKSt5tupleIJRKNSt7__cxx1112basic_stringIcSt11char_traitsIcESaIcEEEEEEEPKNS1_15AnythingMatcherEEE7_M_headERSL_
FNDA:0,_ZNSt11_Tuple_implILm0EJPKN7testing8internal11MatcherBaseIRKSt5tupleIJmEEEEPKNS1_15AnythingMatcherEEE7_M_headERSD_
FNDA:0,_ZNSt11_Tuple_implILm0EJPKN7testing8internal11MatcherBaseImEEPKNS1_9EqMatcherImEEEE7_M_headERSA_
FNDA:99,_ZNSt11_Tuple_implILm0EJPN4calc15InMemoryHistoryESt14default_deleteIS1_EEE7_M_headERS5_
FNDA:99,_ZNSt11_Tuple_implILm0EJPN4calc16SimpleCalculatorESt14default_deleteIS1_EEE7_M_headERS5_
FNDA:30,_ZNSt11_Tuple_implILm0EJPNSt7__cxx1112basic_stringIcSt11char_traitsIcESaIcEEESt14default_deleteIS5_EEE7_M_headERS9_
FNDA:2624,_ZNSt11_Tuple_implILm0EJPNSt7__cxx1118basic_stringstreamIcSt11char_traitsIcESaIcEEESt14default_deleteIS5_EEE7_M_headERS9_
FNDA:11,_ZNSt11_Tuple_implILm0EJPN4calc15InMemoryHistoryESt14default_deleteIS1_EEE7_M_headERKS5_
FNDA:11,_ZNSt11_Tuple_implILm0EJPN4calc16SimpleCalculatorESt14default_deleteIS1_EEE7_M_headERKS5_
FNDA:2,_ZNSt11_Tuple_implILm0EJPN7testing8internal11ThreadLocalIPNS0_8SequenceEE18ValueHolderFactoryESt14default_deleteIS6_EEE7_M_headERKSA_
FNDA:0,_ZNSt11_Tuple_implILm0EJPNSt7__cxx1112basic_stringIcSt11char_traitsIcESaIcEEESt14default_deleteIS5_EEE7_M_headERKS9_
FNDA:11718,_ZNSt11_Tuple_implILm0EJPNSt7__cxx1118basic_stringstreamIcSt11char_traitsIcESaIcEEESt14default_deleteIS5_EEE7_M_headERKS9_
FNDA:22,_ZNSt11_Tuple_implILm0EJPN4calc15InMemoryHistoryESt14default_deleteIS1_EEEC2Ev
FNDA:22,_ZNSt11_Tuple_implILm0EJPN4calc16SimpleCalculatorESt14default_deleteIS1_EEEC2Ev
FNDA:22,_ZNSt11_Tuple_implILm0EJPNSt7__cxx1112basic_stringIcSt11char_traitsIcESaIcEEESt14default_deleteIS5_EEEC2Ev
FNDA:0,_ZNSt11_Tuple_implILm0EJPKN7testing8internal11MatcherBaseIRKNSt7__cxx1112basic_stringIcSt11char_traitsIcESaIcEEEEEPKNS1_15AnythingMatcherEEEC2ISD_JSG_EvEEOT_DpOT0_
FNDA:0,_ZNSt11_Tuple_implILm0EJPKN7testing8internal11MatcherBaseIRKSt5tupleIJRKNSt7__cxx1112basic_stringIcSt11char_traitsIcESaIcEEEEEEEPKNS1_15AnythingMatcherEEEC2ISH_JSK_EvEEOT_DpOT0_
FNDA:0,_ZNSt11_Tuple_implILm0EJPKN7testing8internal11MatcherBaseIRKSt5tupleIJmEEEEPKNS1_15AnythingMatcherEEEC2IS9_JSC_EvEEOT_DpOT0_
FNDA:0,_ZNSt11_Tuple_implILm0EJPKN7testing8internal11MatcherBaseImEEPKNS1_9EqMatcherImEEEEC2IS5_JS9_EvEEOT_DpOT0_
FNDA:0,_ZNSt11_Tuple_implILm0EJRKNSt7__cxx1112basic_stringIcSt11char_traitsIcESaIcEEEEE7_M_headERS8_
FNDA:1,_ZNSt11_Tuple_implILm0EJmEE7_M_headERS0_
FNDA:33,_ZNSt11_Tuple_implILm1EJSt14default_deleteIN4calc15InMemoryHistoryEEEE7_M_headERS4_
FNDA:33,_ZNSt11_Tuple_implILm1EJSt14default_deleteIN4calc16SimpleCalculatorEEEE7_M_headERS4_
FNDA:0,_ZNSt11_Tuple_implILm1EJSt14default_deleteINSt7__cxx1112basic_stringIcSt11char_traitsIcESaIcEEEEEE7_M_headERS8_
FNDA:1312,_ZNSt11_Tuple_implILm1EJSt14default_deleteINSt7__cxx1118basic_stringstreamIcSt11char_traitsIcESaIcEEEEEE7_M_headERS8_
FNDA:5,_ZNSt11_Tuple_implILm0EJN7testing7MatcherIRKNSt7__cxx1112basic_stringIcSt11char_traitsIcESaIcEEEEEEE7_M_headERKSB_
FNDA:1,_ZNSt11_Tuple_implILm0EJN7testing7MatcherImEEEE7_M_headERKS3_
FNDA:5,_ZNSt11_Tuple_implILm0EJRKNSt7__cxx1112basic_stringIcSt11char_traitsIcESaIcEEEEE7_M_headERKS8_
FNDA:1,_ZNSt11_Tuple_implILm0EJmEE7_M_headERKS0_
FNDA:22,_ZNSt11_Tuple_implILm1EJSt14default_deleteIN4calc15InMemoryHistoryEEEEC2Ev
FNDA:22,_ZNSt11_Tuple_implILm1EJSt14default_deleteIN4calc16SimpleCalculatorEEEEC2Ev
FNDA:22,_ZNSt11_Tuple_implILm1EJSt14default_deleteINSt7__cxx1112basic_stringIcSt11char_traitsIcESaIcEEEEEEC2Ev
FNDA:5,_ZNSt11_Tuple_implILm0EJRKNSt7__cxx1112basic_stringIcSt11char_traitsIcESaIcEEEEEC2ES7_
FNDA:5,_ZNSt11_Tuple_implILm0EJN7testing7MatcherIRKNSt7__cxx1112basic_stringIcSt11char_traitsIcESaIcEEEEEEEC2ISA_EEOT_
FNDA:1,_ZNSt11_Tuple_implILm0EJN7testing7MatcherImEEEEC2IS2_EEOT_
FNDA:1,_ZNSt11_Tuple_implILm0EJmEEC2ImEEOT_
FNDA:0,_ZNSt11_Tuple_implILm1EJPKN7testing8internal15AnythingMatcherEEEC2IS4_EEOT_
FNDA:0,_ZNSt11_Tuple_implILm1EJPKN7testing8internal9EqMatcherImEEEEC2IS5_EEOT_
FNDA:10,_ZNSt11_Tuple_implILm0EJN7testing7MatcherIRKNSt7__cxx1112basic_stringIcSt11char_traitsIcESaIcEEEEEEEC2ERKSB_
FNDA:2,_ZNSt11_Tuple_implILm0EJN7testing7MatcherImEEEEC2ERKS3_
FNDA:0,_ZNSt11_Tuple_implILm0EJRKNSt7__cxx1112basic_stringIcSt11char_traitsIcESaIcEEEEEC2EOS8_
FNDA:1,_ZNSt11_Tuple_implILm0EJmEEC2EOS0_
FNDA:22,_ZNSt10_Head_baseILm1ESt14default_deleteIN4calc15InMemoryHistoryEELb1EEC2Ev
FNDA:22,_ZNSt10_Head_baseILm1ESt14default_deleteIN4calc16SimpleCalculatorEELb1EEC2Ev
FNDA:22,_ZNSt10_Head_baseILm1ESt14default_deleteINSt7__cxx1112basic_stringIcSt11char_traitsIcESaIcEEEELb1EEC2Ev
FNDA:5,_ZNSt5tupleIJRKNSt7__cxx1112basic_stringIcSt11char_traitsIcESaIcEEEEEC2ILb1ELb1EEES7_
FNDA:5,_ZNSt5tupleIJN7testing7MatcherIRKNSt7__cxx1112basic_stringIcSt11char_traitsIcESaIcEEEEEEEC2IJSA_ELb1ELb1EEEDpOT_
FNDA:1,_ZNSt5tupleIJN7testing7MatcherImEEEEC2IJS2_ELb1ELb1EEEDpOT_
FNDA:1,_ZNSt5tupleIJmEEC2IJmELb1ELb1EEEDpOT_
FNDA:10,_ZNSt5tupleIJN7testing7MatcherIRKNSt7__cxx1112basic_stringIcSt11char_traitsIcESaIcEEEEEEEC2ERKSB_
FNDA:2,_ZNSt5tupleIJN7testing7MatcherImEEEEC2ERKS3_
FNDA:0,_ZNSt5tupleIJRKNSt7__cxx1112basic_stringIcSt11char_traitsIcESaIcEEEEEC2EOS8_
FNDA:1,_ZNSt5tupleIJmEEC2EOS0_
FNF:151
FNH:101
DA:81,66
DA:82,66
DA:125,1378
DA:190,66
DA:191,66
DA:193,5
DA:194,5
DA:196,12
DA:200,7
DA:201,7
DA:234,2853
DA:237,11754
DA:269,2852
DA:272,11742
DA:280,66
DA:281,66
DA:291,0
DA:293,0
DA:294,0
DA:497,1379
DA:500,12
DA:503,66
DA:504,66
DA:507,5
DA:508,5
DA:509,5
DA:513,7
DA:514,7
DA:515,7
DA:517,12
DA:527,1
DA:529,1
DA:530,1
DA:874,5
DA:876,5
DA:889,7
DA:891,7
DA:901,12
DA:903,1
DA:1317,66
DA:1319,66
DA:1345,0
DA:1347,0
DA:1787,4231
DA:1788,4231
DA:1792,11754
DA:1793,11754
DA:1803,4230
DA:1804,4230
DA:1809,11754
DA:1810,11754
DA:1815,1
DA:1818,1
DA:2001,6
DA:2005,6
LF:55
LH:50
end_of_record
TN:
SF:/usr/include/c++/13/typeinfo
FN:103,104,_ZNKSt9type_info4nameEv
FN:193,210,_ZNKSt9type_infoeqERKS_
FNDA:0,_ZNKSt9type_info4nameEv
FNDA:0,_ZNKSt9type_infoeqERKS_
FNF:2
FNH:0
DA:103,0
DA:104,0
DA:193,0
DA:195,0
DA:196,0
DA:198,0
DA:199,0
DA:206,0
LF:8
LH:0
end_of_record
TN:
SF:/usr/include/x86_64-linux-gnu/c++/13/bits/c++config.h
FN:540,551,_ZSt23__is_constant_evaluatedv
FNDA:14955,_ZSt23__is_constant_evaluatedv
FNF:1
FNH:1
DA:540,14955
DA:547,14955
LF:2
LH:2
end_of_record
